(lp0
((lp1
Vc
p2
aVl
p3
aVn
p4
aVm
p5
aVy
p6
ag2
ag4
aVp
p7
aVh
p8
aVo
p9
aVs
p10
ag7
ag8
ag4
aVr
p11
ag4
ag9
ag4
a(lp12
VC(C(C1C(=C(C(=O)O1)O)O)O)O\u000a
p13
aVC1=CC(=C(C=C1CC(C(=O)O)N)O)O\u000a
p14
aVCCN(C(C)C)C(C)C\u000a
p15
aV[Cu]\u000a
p16
aVC1=CC=C(C=C1)N=NC2=C(C=C(C=C2)N)NCl\u000a
p17
aVC(C(C1C(=C(C(=O)O1)O)O)O)O\u000a
p18
aVCCN(C(C)C)C(C)C\u000a
p19
aVCC1=CC=C(C=C1)S(=O)(=O)O\u000a
p20
aV[Cu]\u000a
p21
aVCCOP(=S)(OCC)OC1=CC=C(C=C1)[N+](=O)[O-]\u000a
p22
aVCCOP(=S)(OCC)SCSP(=S)(OCC)OCC\u000a
p23
aVCC1=CC=C(C=C1)S(=O)(=O)O\u000a
p24
aV[Cu]\u000a
p25
aVCCN(C(C)C)C(C)C\u000a
p26
aVCC(C)(C)OC(=O)N1CCC(C1)O\u000a
p27
aVCCN(C(C)C)C(C)C\u000a
p28
aVCCOP(=S)(OCC)OC1=CC=C(C=C1)[N+](=O)[O-]\u000a
p29
aVCCN(C(C)C)C(C)C\u000a
p30
atp31
a((lp32
g7
ag10
ag11
ag9
a(lp33
VCC1=CC=C(C=C1)S(=O)(=O)O\u000a
p34
aVCCOP(=S)(OCC)SCSP(=S)(OCC)OCC\u000a
p35
aVCC(C)(C)OC(=O)N1CCC(C1)O\u000a
p36
aVCCOP(=S)(OCC)OC1=CC=C(C=C1)[N+](=O)[O-]\u000a
p37
atp38
a((lp39
g5
aVz
p40
ag5
aVb
p41
ag9
ag40
ag9
ag5
ag2
ag4
a(lp42
V[Cu]\u000a
p43
aVCCCCCC=CCC=CCC=CCCCCCCC(=O)O\u000a
p44
aV[Cu]\u000a
p45
aVCCN(CCO)C1=CC=C(C=C1)N=NC2=CC=C(C=C2)[N+](=O)[O-]\u000a
p46
aVCCOP(=S)(OCC)OC1=CC=C(C=C1)[N+](=O)[O-]\u000a
p47
aVCCCCCC=CCC=CCC=CCCCCCCC(=O)O\u000a
p48
aVCCOP(=S)(OCC)OC1=CC=C(C=C1)[N+](=O)[O-]\u000a
p49
aV[Cu]\u000a
p50
aVC(C(C1C(=C(C(=O)O1)O)O)O)O\u000a
p51
aVCCN(C(C)C)C(C)C\u000a
p52
atp53
a((lp54
g4
ag9
ag11
ag41
ag2
ag4
ag4
ag2
ag6
ag11
ag41
ag4
a(lp55
VCCN(C(C)C)C(C)C\u000a
p56
aVCCOP(=S)(OCC)OC1=CC=C(C=C1)[N+](=O)[O-]\u000a
p57
aVCC(C)(C)OC(=O)N1CCC(C1)O\u000a
p58
aVCCN(CCO)C1=CC=C(C=C1)N=NC2=CC=C(C=C2)[N+](=O)[O-]\u000a
p59
aVC(C(C1C(=C(C(=O)O1)O)O)O)O\u000a
p60
aVCCN(C(C)C)C(C)C\u000a
p61
aVCCN(C(C)C)C(C)C\u000a
p62
aVC(C(C1C(=C(C(=O)O1)O)O)O)O\u000a
p63
aVC1=CC=C(C=C1)N=NC2=C(C=C(C=C2)N)NCl\u000a
p64
aVCC(C)(C)OC(=O)N1CCC(C1)O\u000a
p65
aVCCN(CCO)C1=CC=C(C=C1)N=NC2=CC=C(C=C2)[N+](=O)[O-]\u000a
p66
aVCCN(C(C)C)C(C)C\u000a
p67
atp68
a((lp69
g3
ag9
ag2
ag4
ag8
ag6
ag11
ag9
ag2
ag8
ag3
ag9
ag11
ag5
ag9
ag4
ag9
ag8
ag6
ag11
a(lp70
VC1=CC(=C(C=C1CC(C(=O)O)N)O)O\u000a
p71
aVCCOP(=S)(OCC)OC1=CC=C(C=C1)[N+](=O)[O-]\u000a
p72
aVC(C(C1C(=C(C(=O)O1)O)O)O)O\u000a
p73
aVCCN(C(C)C)C(C)C\u000a
p74
aV[Cu]\u000a
p75
aVC1=CC=C(C=C1)N=NC2=C(C=C(C=C2)N)NCl\u000a
p76
aVCC(C)(C)OC(=O)N1CCC(C1)O\u000a
p77
aVCCOP(=S)(OCC)OC1=CC=C(C=C1)[N+](=O)[O-]\u000a
p78
aVC(C(C1C(=C(C(=O)O1)O)O)O)O\u000a
p79
aV[Cu]\u000a
p80
aVC1=CC(=C(C=C1CC(C(=O)O)N)O)O\u000a
p81
aVCCOP(=S)(OCC)OC1=CC=C(C=C1)[N+](=O)[O-]\u000a
p82
aVCC(C)(C)OC(=O)N1CCC(C1)O\u000a
p83
aV[Cu]\u000a
p84
aVCCOP(=S)(OCC)OC1=CC=C(C=C1)[N+](=O)[O-]\u000a
p85
aVCCN(C(C)C)C(C)C\u000a
p86
aVCCOP(=S)(OCC)OC1=CC=C(C=C1)[N+](=O)[O-]\u000a
p87
aV[Cu]\u000a
p88
aVC1=CC=C(C=C1)N=NC2=C(C=C(C=C2)N)NCl\u000a
p89
aVCC(C)(C)OC(=O)N1CCC(C1)O\u000a
p90
atp91
a((lp92
g41
ag7
ag11
ag4
ag9
ag11
ag7
ag8
ag4
ag4
ag4
ag3
ag9
aVx
p93
ag9
ag4
a(lp94
VCCN(CCO)C1=CC=C(C=C1)N=NC2=CC=C(C=C2)[N+](=O)[O-]\u000a
p95
aVCC1=CC=C(C=C1)S(=O)(=O)O\u000a
p96
aVCC(C)(C)OC(=O)N1CCC(C1)O\u000a
p97
aVCCN(C(C)C)C(C)C\u000a
p98
aVCCOP(=S)(OCC)OC1=CC=C(C=C1)[N+](=O)[O-]\u000a
p99
aVCC(C)(C)OC(=O)N1CCC(C1)O\u000a
p100
aVCC1=CC=C(C=C1)S(=O)(=O)O\u000a
p101
aV[Cu]\u000a
p102
aVCCN(C(C)C)C(C)C\u000a
p103
aVCCN(C(C)C)C(C)C\u000a
p104
aVCCN(C(C)C)C(C)C\u000a
p105
aVC1=CC(=C(C=C1CC(C(=O)O)N)O)O\u000a
p106
aVCCOP(=S)(OCC)OC1=CC=C(C=C1)[N+](=O)[O-]\u000a
p107
aV[Al]\u000a
p108
aVCCOP(=S)(OCC)OC1=CC=C(C=C1)[N+](=O)[O-]\u000a
p109
aVCCN(C(C)C)C(C)C\u000a
p110
atp111
a((lp112
g3
ag2
ag11
ag7
ag10
a(lp113
VC1=CC(=C(C=C1CC(C(=O)O)N)O)O\u000a
p114
aVC(C(C1C(=C(C(=O)O1)O)O)O)O\u000a
p115
aVCC(C)(C)OC(=O)N1CCC(C1)O\u000a
p116
aVCC1=CC=C(C=C1)S(=O)(=O)O\u000a
p117
aVCCOP(=S)(OCC)SCSP(=S)(OCC)OCC\u000a
p118
atp119
a((lp120
Vv
p121
ag3
ag4
ag2
ag2
ag3
ag9
ag121
ag11
aVH
p122
aVC
p123
ag3
a(lp124
VCC1(C(N2C(S1)C(C2=O)NC(=O)COC3=CC=CC=C3)C(=O)O)C\u000a
p125
aVC1=CC(=C(C=C1CC(C(=O)O)N)O)O\u000a
p126
aVCCN(C(C)C)C(C)C\u000a
p127
aVC(C(C1C(=C(C(=O)O1)O)O)O)O\u000a
p128
aVC(C(C1C(=C(C(=O)O1)O)O)O)O\u000a
p129
aVC1=CC(=C(C=C1CC(C(=O)O)N)O)O\u000a
p130
aVCCOP(=S)(OCC)OC1=CC=C(C=C1)[N+](=O)[O-]\u000a
p131
aVCC1(C(N2C(S1)C(C2=O)NC(=O)COC3=CC=CC=C3)C(=O)O)C\u000a
p132
aVCC(C)(C)OC(=O)N1CCC(C1)O\u000a
p133
aV[Cu]\u000a
p134
aVC(C(C1C(=C(C(=O)O1)O)O)O)O\u000a
p135
aVC1=CC(=C(C=C1CC(C(=O)O)N)O)O\u000a
p136
atp137
a((lp138
g4
ag3
ag11
ag93
ag9
ag4
ag9
ag11
ag93
ag4
ag11
ag3
ag10
ag4
aVj
p139
ag2
ag41
ag3
ag10
ag10
ag7
ag4
ag10
ag9
ag4
a(lp140
VCCN(C(C)C)C(C)C\u000a
p141
aVC1=CC(=C(C=C1CC(C(=O)O)N)O)O\u000a
p142
aVCC(C)(C)OC(=O)N1CCC(C1)O\u000a
p143
aV[Al]\u000a
p144
aVCCOP(=S)(OCC)OC1=CC=C(C=C1)[N+](=O)[O-]\u000a
p145
aVCCN(C(C)C)C(C)C\u000a
p146
aVCCOP(=S)(OCC)OC1=CC=C(C=C1)[N+](=O)[O-]\u000a
p147
aVCC(C)(C)OC(=O)N1CCC(C1)O\u000a
p148
aV[Al]\u000a
p149
aVCCN(C(C)C)C(C)C\u000a
p150
aVCC(C)(C)OC(=O)N1CCC(C1)O\u000a
p151
aVC1=CC(=C(C=C1CC(C(=O)O)N)O)O\u000a
p152
aVCCOP(=S)(OCC)SCSP(=S)(OCC)OCC\u000a
p153
aVCCN(C(C)C)C(C)C\u000a
p154
aVC1=CC=C2C(=C1)C=CC3=C2C4=CC=CC5=C4C3=CC=C5\u000a
p155
aVC(C(C1C(=C(C(=O)O1)O)O)O)O\u000a
p156
aVCCN(CCO)C1=CC=C(C=C1)N=NC2=CC=C(C=C2)[N+](=O)[O-]\u000a
p157
aVC1=CC(=C(C=C1CC(C(=O)O)N)O)O\u000a
p158
aVCCOP(=S)(OCC)SCSP(=S)(OCC)OCC\u000a
p159
aVCCOP(=S)(OCC)SCSP(=S)(OCC)OCC\u000a
p160
aVCC1=CC=C(C=C1)S(=O)(=O)O\u000a
p161
aVCCN(C(C)C)C(C)C\u000a
p162
aVCCOP(=S)(OCC)SCSP(=S)(OCC)OCC\u000a
p163
aVCCOP(=S)(OCC)OC1=CC=C(C=C1)[N+](=O)[O-]\u000a
p164
aVCCN(C(C)C)C(C)C\u000a
p165
atp166
a((lp167
VS
p168
ag8
ag9
ag11
aVR
p169
aVP
p170
ag9
ag3
ag3
ag4
ag3
ag3
ag11
ag4
ag93
ag11
ag2
a(lp171
VCCOP(=S)(OCC)SCSP(=S)(OCC)OCC\u000a
p172
aV[Cu]\u000a
p173
aVCCOP(=S)(OCC)OC1=CC=C(C=C1)[N+](=O)[O-]\u000a
p174
aVCC(C)(C)OC(=O)N1CCC(C1)O\u000a
p175
aVCC(C)(C)OC(=O)N1CCC(C1)O\u000a
p176
aVCC1=CC=C(C=C1)S(=O)(=O)O\u000a
p177
aVCCOP(=S)(OCC)OC1=CC=C(C=C1)[N+](=O)[O-]\u000a
p178
aVC1=CC(=C(C=C1CC(C(=O)O)N)O)O\u000a
p179
aVC1=CC(=C(C=C1CC(C(=O)O)N)O)O\u000a
p180
aVCCN(C(C)C)C(C)C\u000a
p181
aVC1=CC(=C(C=C1CC(C(=O)O)N)O)O\u000a
p182
aVC1=CC(=C(C=C1CC(C(=O)O)N)O)O\u000a
p183
aVCC(C)(C)OC(=O)N1CCC(C1)O\u000a
p184
aVCCN(C(C)C)C(C)C\u000a
p185
aV[Al]\u000a
p186
aVCC(C)(C)OC(=O)N1CCC(C1)O\u000a
p187
aVC(C(C1C(=C(C(=O)O1)O)O)O)O\u000a
p188
atp189
a((lp190
g2
ag11
ag40
ag4
ag122
ag123
ag3
a(lp191
VC(C(C1C(=C(C(=O)O1)O)O)O)O\u000a
p192
aVCC(C)(C)OC(=O)N1CCC(C1)O\u000a
p193
aVCCCCCC=CCC=CCC=CCCCCCCC(=O)O\u000a
p194
aVCCN(C(C)C)C(C)C\u000a
p195
aV[Cu]\u000a
p196
aVC(C(C1C(=C(C(=O)O1)O)O)O)O\u000a
p197
aVC1=CC(=C(C=C1CC(C(=O)O)N)O)O\u000a
p198
atp199
a((lp200
g41
ag2
ag3
ag9
ag5
ag8
ag10
ag9
ag4
ag7
ag11
ag9
ag7
ag9
ag4
a(lp201
VCCN(CCO)C1=CC=C(C=C1)N=NC2=CC=C(C=C2)[N+](=O)[O-]\u000a
p202
aVC(C(C1C(=C(C(=O)O1)O)O)O)O\u000a
p203
aVC1=CC(=C(C=C1CC(C(=O)O)N)O)O\u000a
p204
aVCCOP(=S)(OCC)OC1=CC=C(C=C1)[N+](=O)[O-]\u000a
p205
aV[Cu]\u000a
p206
aV[Cu]\u000a
p207
aVCCOP(=S)(OCC)SCSP(=S)(OCC)OCC\u000a
p208
aVCCOP(=S)(OCC)OC1=CC=C(C=C1)[N+](=O)[O-]\u000a
p209
aVCCN(C(C)C)C(C)C\u000a
p210
aVCC1=CC=C(C=C1)S(=O)(=O)O\u000a
p211
aVCC(C)(C)OC(=O)N1CCC(C1)O\u000a
p212
aVCCOP(=S)(OCC)OC1=CC=C(C=C1)[N+](=O)[O-]\u000a
p213
aVCC1=CC=C(C=C1)S(=O)(=O)O\u000a
p214
aVCCOP(=S)(OCC)OC1=CC=C(C=C1)[N+](=O)[O-]\u000a
p215
aVCCN(C(C)C)C(C)C\u000a
p216
atp217
a((lp218
g3
ag4
ag5
ag4
ag8
ag6
ag11
ag9
ag41
ag11
ag9
ag5
a(lp219
VC1=CC(=C(C=C1CC(C(=O)O)N)O)O\u000a
p220
aVCCN(C(C)C)C(C)C\u000a
p221
aV[Cu]\u000a
p222
aVCCN(C(C)C)C(C)C\u000a
p223
aV[Cu]\u000a
p224
aVC1=CC=C(C=C1)N=NC2=C(C=C(C=C2)N)NCl\u000a
p225
aVCC(C)(C)OC(=O)N1CCC(C1)O\u000a
p226
aVCCOP(=S)(OCC)OC1=CC=C(C=C1)[N+](=O)[O-]\u000a
p227
aVCCN(CCO)C1=CC=C(C=C1)N=NC2=CC=C(C=C2)[N+](=O)[O-]\u000a
p228
aVCC(C)(C)OC(=O)N1CCC(C1)O\u000a
p229
aVCCOP(=S)(OCC)OC1=CC=C(C=C1)[N+](=O)[O-]\u000a
p230
aV[Cu]\u000a
p231
atp232
a((lp233
g170
ag11
ag9
ag5
ag11
a(lp234
VCC1=CC=C(C=C1)S(=O)(=O)O\u000a
p235
aVCC(C)(C)OC(=O)N1CCC(C1)O\u000a
p236
aVCCOP(=S)(OCC)OC1=CC=C(C=C1)[N+](=O)[O-]\u000a
p237
aV[Cu]\u000a
p238
aVCC(C)(C)OC(=O)N1CCC(C1)O\u000a
p239
atp240
a((lp241
g11
ag3
ag40
ag9
ag3
a(lp242
VCC(C)(C)OC(=O)N1CCC(C1)O\u000a
p243
aVC1=CC(=C(C=C1CC(C(=O)O)N)O)O\u000a
p244
aVCCCCCC=CCC=CCC=CCCCCCCC(=O)O\u000a
p245
aVCCOP(=S)(OCC)OC1=CC=C(C=C1)[N+](=O)[O-]\u000a
p246
aVC1=CC(=C(C=C1CC(C(=O)O)N)O)O\u000a
p247
atp248
a((lp249
g4
ag11
ag9
ag3
ag6
ag2
ag11
ag4
a(lp250
VCCN(C(C)C)C(C)C\u000a
p251
aVCC(C)(C)OC(=O)N1CCC(C1)O\u000a
p252
aVCCOP(=S)(OCC)OC1=CC=C(C=C1)[N+](=O)[O-]\u000a
p253
aVC1=CC(=C(C=C1CC(C(=O)O)N)O)O\u000a
p254
aVC1=CC=C(C=C1)N=NC2=C(C=C(C=C2)N)NCl\u000a
p255
aVC(C(C1C(=C(C(=O)O1)O)O)O)O\u000a
p256
aVCC(C)(C)OC(=O)N1CCC(C1)O\u000a
p257
aVCCN(C(C)C)C(C)C\u000a
p258
atp259
a((lp260
g11
ag9
ag4
ag10
ag2
ag11
ag9
ag10
ag4
ag139
ag2
ag9
ag4
a(lp261
VCC(C)(C)OC(=O)N1CCC(C1)O\u000a
p262
aVCCOP(=S)(OCC)OC1=CC=C(C=C1)[N+](=O)[O-]\u000a
p263
aVCCN(C(C)C)C(C)C\u000a
p264
aVCCOP(=S)(OCC)SCSP(=S)(OCC)OCC\u000a
p265
aVC(C(C1C(=C(C(=O)O1)O)O)O)O\u000a
p266
aVCC(C)(C)OC(=O)N1CCC(C1)O\u000a
p267
aVCCOP(=S)(OCC)OC1=CC=C(C=C1)[N+](=O)[O-]\u000a
p268
aVCCOP(=S)(OCC)SCSP(=S)(OCC)OCC\u000a
p269
aVCCN(C(C)C)C(C)C\u000a
p270
aVC1=CC=C2C(=C1)C=CC3=C2C4=CC=CC5=C4C3=CC=C5\u000a
p271
aVC(C(C1C(=C(C(=O)O1)O)O)O)O\u000a
p272
aVCCOP(=S)(OCC)OC1=CC=C(C=C1)[N+](=O)[O-]\u000a
p273
aVCCN(C(C)C)C(C)C\u000a
p274
atp275
a((lp276
g3
ag9
ag2
ag4
ag8
ag6
ag11
ag9
ag2
ag8
ag3
ag9
ag11
ag5
ag9
ag4
ag9
ag8
ag6
ag11
a(lp277
VC1=CC(=C(C=C1CC(C(=O)O)N)O)O\u000a
p278
aVCCOP(=S)(OCC)OC1=CC=C(C=C1)[N+](=O)[O-]\u000a
p279
aVC(C(C1C(=C(C(=O)O1)O)O)O)O\u000a
p280
aVCCN(C(C)C)C(C)C\u000a
p281
aV[Cu]\u000a
p282
aVC1=CC=C(C=C1)N=NC2=C(C=C(C=C2)N)NCl\u000a
p283
aVCC(C)(C)OC(=O)N1CCC(C1)O\u000a
p284
aVCCOP(=S)(OCC)OC1=CC=C(C=C1)[N+](=O)[O-]\u000a
p285
aVC(C(C1C(=C(C(=O)O1)O)O)O)O\u000a
p286
aV[Cu]\u000a
p287
aVC1=CC(=C(C=C1CC(C(=O)O)N)O)O\u000a
p288
aVCCOP(=S)(OCC)OC1=CC=C(C=C1)[N+](=O)[O-]\u000a
p289
aVCC(C)(C)OC(=O)N1CCC(C1)O\u000a
p290
aV[Cu]\u000a
p291
aVCCOP(=S)(OCC)OC1=CC=C(C=C1)[N+](=O)[O-]\u000a
p292
aVCCN(C(C)C)C(C)C\u000a
p293
aVCCOP(=S)(OCC)OC1=CC=C(C=C1)[N+](=O)[O-]\u000a
p294
aV[Cu]\u000a
p295
aVC1=CC=C(C=C1)N=NC2=C(C=C(C=C2)N)NCl\u000a
p296
aVCC(C)(C)OC(=O)N1CCC(C1)O\u000a
p297
atp298
a((lp299
g5
ag9
ag7
ag11
ag9
ag3
ag9
ag3
ag10
ag2
ag2
ag4
a(lp300
V[Cu]\u000a
p301
aVCCOP(=S)(OCC)OC1=CC=C(C=C1)[N+](=O)[O-]\u000a
p302
aVCC1=CC=C(C=C1)S(=O)(=O)O\u000a
p303
aVCC(C)(C)OC(=O)N1CCC(C1)O\u000a
p304
aVCCOP(=S)(OCC)OC1=CC=C(C=C1)[N+](=O)[O-]\u000a
p305
aVC1=CC(=C(C=C1CC(C(=O)O)N)O)O\u000a
p306
aVCCOP(=S)(OCC)OC1=CC=C(C=C1)[N+](=O)[O-]\u000a
p307
aVC1=CC(=C(C=C1CC(C(=O)O)N)O)O\u000a
p308
aVCCOP(=S)(OCC)SCSP(=S)(OCC)OCC\u000a
p309
aVC(C(C1C(=C(C(=O)O1)O)O)O)O\u000a
p310
aVC(C(C1C(=C(C(=O)O1)O)O)O)O\u000a
p311
aVCCN(C(C)C)C(C)C\u000a
p312
atp313
a((lp314
g7
ag11
ag4
ag10
ag9
ag4
a(lp315
VCC1=CC=C(C=C1)S(=O)(=O)O\u000a
p316
aVCC(C)(C)OC(=O)N1CCC(C1)O\u000a
p317
aVCCN(C(C)C)C(C)C\u000a
p318
aVCCOP(=S)(OCC)SCSP(=S)(OCC)OCC\u000a
p319
aVCCOP(=S)(OCC)OC1=CC=C(C=C1)[N+](=O)[O-]\u000a
p320
aVCCN(C(C)C)C(C)C\u000a
p321
atp322
a((lp323
g11
ag9
ag4
ag41
ag4
ag9
ag3
ag9
ag11
ag3
ag10
ag9
ag3
ag9
ag4
a(lp324
VCC(C)(C)OC(=O)N1CCC(C1)O\u000a
p325
aVCCOP(=S)(OCC)OC1=CC=C(C=C1)[N+](=O)[O-]\u000a
p326
aVCCN(C(C)C)C(C)C\u000a
p327
aVCCN(CCO)C1=CC=C(C=C1)N=NC2=CC=C(C=C2)[N+](=O)[O-]\u000a
p328
aVCCN(C(C)C)C(C)C\u000a
p329
aVCCOP(=S)(OCC)OC1=CC=C(C=C1)[N+](=O)[O-]\u000a
p330
aVC1=CC(=C(C=C1CC(C(=O)O)N)O)O\u000a
p331
aVCCOP(=S)(OCC)OC1=CC=C(C=C1)[N+](=O)[O-]\u000a
p332
aVCC(C)(C)OC(=O)N1CCC(C1)O\u000a
p333
aVC1=CC(=C(C=C1CC(C(=O)O)N)O)O\u000a
p334
aVCCOP(=S)(OCC)SCSP(=S)(OCC)OCC\u000a
p335
aVCCOP(=S)(OCC)OC1=CC=C(C=C1)[N+](=O)[O-]\u000a
p336
aVC1=CC(=C(C=C1CC(C(=O)O)N)O)O\u000a
p337
aVCCOP(=S)(OCC)OC1=CC=C(C=C1)[N+](=O)[O-]\u000a
p338
aVCCN(C(C)C)C(C)C\u000a
p339
atp340
a((lp341
g7
ag11
ag9
ag2
ag4
ag5
ag8
ag6
ag11
ag9
ag2
ag8
ag3
ag9
ag11
ag93
ag4
ag11
ag3
ag10
ag41
ag3
ag10
a(lp342
VCC1=CC=C(C=C1)S(=O)(=O)O\u000a
p343
aVCC(C)(C)OC(=O)N1CCC(C1)O\u000a
p344
aVCCOP(=S)(OCC)OC1=CC=C(C=C1)[N+](=O)[O-]\u000a
p345
aVC(C(C1C(=C(C(=O)O1)O)O)O)O\u000a
p346
aVCCN(C(C)C)C(C)C\u000a
p347
aV[Cu]\u000a
p348
aV[Cu]\u000a
p349
aVC1=CC=C(C=C1)N=NC2=C(C=C(C=C2)N)NCl\u000a
p350
aVCC(C)(C)OC(=O)N1CCC(C1)O\u000a
p351
aVCCOP(=S)(OCC)OC1=CC=C(C=C1)[N+](=O)[O-]\u000a
p352
aVC(C(C1C(=C(C(=O)O1)O)O)O)O\u000a
p353
aV[Cu]\u000a
p354
aVC1=CC(=C(C=C1CC(C(=O)O)N)O)O\u000a
p355
aVCCOP(=S)(OCC)OC1=CC=C(C=C1)[N+](=O)[O-]\u000a
p356
aVCC(C)(C)OC(=O)N1CCC(C1)O\u000a
p357
aV[Al]\u000a
p358
aVCCN(C(C)C)C(C)C\u000a
p359
aVCC(C)(C)OC(=O)N1CCC(C1)O\u000a
p360
aVC1=CC(=C(C=C1CC(C(=O)O)N)O)O\u000a
p361
aVCCOP(=S)(OCC)SCSP(=S)(OCC)OCC\u000a
p362
aVCCN(CCO)C1=CC=C(C=C1)N=NC2=CC=C(C=C2)[N+](=O)[O-]\u000a
p363
aVC1=CC(=C(C=C1CC(C(=O)O)N)O)O\u000a
p364
aVCCOP(=S)(OCC)SCSP(=S)(OCC)OCC\u000a
p365
atp366
a((lp367
g11
ag5
ag2
ag4
ag9
ag3
ag9
ag4
ag2
ag9
ag4
ag93
ag4
ag11
ag3
ag10
ag4
ag139
ag2
ag41
ag3
ag10
ag10
ag7
ag4
ag10
ag9
ag4
a(lp368
VCC(C)(C)OC(=O)N1CCC(C1)O\u000a
p369
aV[Cu]\u000a
p370
aVC(C(C1C(=C(C(=O)O1)O)O)O)O\u000a
p371
aVCCN(C(C)C)C(C)C\u000a
p372
aVCCOP(=S)(OCC)OC1=CC=C(C=C1)[N+](=O)[O-]\u000a
p373
aVC1=CC(=C(C=C1CC(C(=O)O)N)O)O\u000a
p374
aVCCOP(=S)(OCC)OC1=CC=C(C=C1)[N+](=O)[O-]\u000a
p375
aVCCN(C(C)C)C(C)C\u000a
p376
aVC(C(C1C(=C(C(=O)O1)O)O)O)O\u000a
p377
aVCCOP(=S)(OCC)OC1=CC=C(C=C1)[N+](=O)[O-]\u000a
p378
aVCCN(C(C)C)C(C)C\u000a
p379
aV[Al]\u000a
p380
aVCCN(C(C)C)C(C)C\u000a
p381
aVCC(C)(C)OC(=O)N1CCC(C1)O\u000a
p382
aVC1=CC(=C(C=C1CC(C(=O)O)N)O)O\u000a
p383
aVCCOP(=S)(OCC)SCSP(=S)(OCC)OCC\u000a
p384
aVCCN(C(C)C)C(C)C\u000a
p385
aVC1=CC=C2C(=C1)C=CC3=C2C4=CC=CC5=C4C3=CC=C5\u000a
p386
aVC(C(C1C(=C(C(=O)O1)O)O)O)O\u000a
p387
aVCCN(CCO)C1=CC=C(C=C1)N=NC2=CC=C(C=C2)[N+](=O)[O-]\u000a
p388
aVC1=CC(=C(C=C1CC(C(=O)O)N)O)O\u000a
p389
aVCCOP(=S)(OCC)SCSP(=S)(OCC)OCC\u000a
p390
aVCCOP(=S)(OCC)SCSP(=S)(OCC)OCC\u000a
p391
aVCC1=CC=C(C=C1)S(=O)(=O)O\u000a
p392
aVCCN(C(C)C)C(C)C\u000a
p393
aVCCOP(=S)(OCC)SCSP(=S)(OCC)OCC\u000a
p394
aVCCOP(=S)(OCC)OC1=CC=C(C=C1)[N+](=O)[O-]\u000a
p395
aVCCN(C(C)C)C(C)C\u000a
p396
atp397
a((lp398
g9
ag2
ag3
ag40
ag5
ag41
a(lp399
VCCOP(=S)(OCC)OC1=CC=C(C=C1)[N+](=O)[O-]\u000a
p400
aVC(C(C1C(=C(C(=O)O1)O)O)O)O\u000a
p401
aVC1=CC(=C(C=C1CC(C(=O)O)N)O)O\u000a
p402
aVCCCCCC=CCC=CCC=CCCCCCCC(=O)O\u000a
p403
aV[Cu]\u000a
p404
aVCCN(CCO)C1=CC=C(C=C1)N=NC2=CC=C(C=C2)[N+](=O)[O-]\u000a
p405
atp406
a((lp407
g10
ag121
ag2
ag9
ag4
ag40
ag9
ag4
ag5
ag10
ag3
a(lp408
VCCOP(=S)(OCC)SCSP(=S)(OCC)OCC\u000a
p409
aVCC1(C(N2C(S1)C(C2=O)NC(=O)COC3=CC=CC=C3)C(=O)O)C\u000a
p410
aVC(C(C1C(=C(C(=O)O1)O)O)O)O\u000a
p411
aVCCOP(=S)(OCC)OC1=CC=C(C=C1)[N+](=O)[O-]\u000a
p412
aVCCN(C(C)C)C(C)C\u000a
p413
aVCCCCCC=CCC=CCC=CCCCCCCC(=O)O\u000a
p414
aVCCOP(=S)(OCC)OC1=CC=C(C=C1)[N+](=O)[O-]\u000a
p415
aVCCN(C(C)C)C(C)C\u000a
p416
aV[Cu]\u000a
p417
aVCCOP(=S)(OCC)SCSP(=S)(OCC)OCC\u000a
p418
aVC1=CC(=C(C=C1CC(C(=O)O)N)O)O\u000a
p419
atp420
a((lp421
VZ
p422
ag3
ag9
ag4
a(lp423
VCCCCCC=CCC=CCC=CCCCCCCC(=O)O\u000a
p424
aVC1=CC(=C(C=C1CC(C(=O)O)N)O)O\u000a
p425
aVCCOP(=S)(OCC)OC1=CC=C(C=C1)[N+](=O)[O-]\u000a
p426
aVCCN(C(C)C)C(C)C\u000a
p427
atp428
a((lp429
g4
ag9
ag2
ag11
ag9
ag5
ag3
ag10
ag9
ag5
a(lp430
VCCN(C(C)C)C(C)C\u000a
p431
aVCCOP(=S)(OCC)OC1=CC=C(C=C1)[N+](=O)[O-]\u000a
p432
aVC(C(C1C(=C(C(=O)O1)O)O)O)O\u000a
p433
aVCC(C)(C)OC(=O)N1CCC(C1)O\u000a
p434
aVCCOP(=S)(OCC)OC1=CC=C(C=C1)[N+](=O)[O-]\u000a
p435
aV[Cu]\u000a
p436
aVC1=CC(=C(C=C1CC(C(=O)O)N)O)O\u000a
p437
aVCCOP(=S)(OCC)SCSP(=S)(OCC)OCC\u000a
p438
aVCCOP(=S)(OCC)OC1=CC=C(C=C1)[N+](=O)[O-]\u000a
p439
aV[Cu]\u000a
p440
atp441
a((lp442
g3
ag11
ag9
ag2
ag5
ag41
a(lp443
VC1=CC(=C(C=C1CC(C(=O)O)N)O)O\u000a
p444
aVCC(C)(C)OC(=O)N1CCC(C1)O\u000a
p445
aVCCOP(=S)(OCC)OC1=CC=C(C=C1)[N+](=O)[O-]\u000a
p446
aVC(C(C1C(=C(C(=O)O1)O)O)O)O\u000a
p447
aV[Cu]\u000a
p448
aVCCN(CCO)C1=CC=C(C=C1)N=NC2=CC=C(C=C2)[N+](=O)[O-]\u000a
p449
atp450
a((lp451
g41
ag4
ag4
ag122
ag123
ag3
ag2
ag11
ag5
a(lp452
VCCN(CCO)C1=CC=C(C=C1)N=NC2=CC=C(C=C2)[N+](=O)[O-]\u000a
p453
aVCCN(C(C)C)C(C)C\u000a
p454
aVCCN(C(C)C)C(C)C\u000a
p455
aV[Cu]\u000a
p456
aVC(C(C1C(=C(C(=O)O1)O)O)O)O\u000a
p457
aVC1=CC(=C(C=C1CC(C(=O)O)N)O)O\u000a
p458
aVC(C(C1C(=C(C(=O)O1)O)O)O)O\u000a
p459
aVCC(C)(C)OC(=O)N1CCC(C1)O\u000a
p460
aV[Cu]\u000a
p461
atp462
a((lp463
g10
ag9
ag4
a(lp464
VCCOP(=S)(OCC)SCSP(=S)(OCC)OCC\u000a
p465
aVCCOP(=S)(OCC)OC1=CC=C(C=C1)[N+](=O)[O-]\u000a
p466
aVCCN(C(C)C)C(C)C\u000a
p467
atp468
a((lp469
g11
ag121
ag11
ag9
ag93
ag41
ag4
a(lp470
VCC(C)(C)OC(=O)N1CCC(C1)O\u000a
p471
aVCC1(C(N2C(S1)C(C2=O)NC(=O)COC3=CC=CC=C3)C(=O)O)C\u000a
p472
aVCC(C)(C)OC(=O)N1CCC(C1)O\u000a
p473
aVCCOP(=S)(OCC)OC1=CC=C(C=C1)[N+](=O)[O-]\u000a
p474
aV[Al]\u000a
p475
aVCCN(CCO)C1=CC=C(C=C1)N=NC2=CC=C(C=C2)[N+](=O)[O-]\u000a
p476
aVCCN(C(C)C)C(C)C\u000a
p477
atp478
a((lp479
g5
ag8
ag6
ag3
ag7
ag8
ag4
ag8
ag6
ag11
ag9
ag2
ag8
ag3
ag9
ag11
a(lp480
V[Cu]\u000a
p481
aV[Cu]\u000a
p482
aVC1=CC=C(C=C1)N=NC2=C(C=C(C=C2)N)NCl\u000a
p483
aVC1=CC(=C(C=C1CC(C(=O)O)N)O)O\u000a
p484
aVCC1=CC=C(C=C1)S(=O)(=O)O\u000a
p485
aV[Cu]\u000a
p486
aVCCN(C(C)C)C(C)C\u000a
p487
aV[Cu]\u000a
p488
aVC1=CC=C(C=C1)N=NC2=C(C=C(C=C2)N)NCl\u000a
p489
aVCC(C)(C)OC(=O)N1CCC(C1)O\u000a
p490
aVCCOP(=S)(OCC)OC1=CC=C(C=C1)[N+](=O)[O-]\u000a
p491
aVC(C(C1C(=C(C(=O)O1)O)O)O)O\u000a
p492
aV[Cu]\u000a
p493
aVC1=CC(=C(C=C1CC(C(=O)O)N)O)O\u000a
p494
aVCCOP(=S)(OCC)OC1=CC=C(C=C1)[N+](=O)[O-]\u000a
p495
aVCC(C)(C)OC(=O)N1CCC(C1)O\u000a
p496
atp497
a((lp498
VL
p499
ag10
ag93
ag5
ag5
ag4
ag5
ag10
ag6
ag3
a(lp500
VC1=CC(=C(C=C1CC(C(=O)O)N)O)O\u000a
p501
aVCCOP(=S)(OCC)SCSP(=S)(OCC)OCC\u000a
p502
aV[Al]\u000a
p503
aV[Cu]\u000a
p504
aV[Cu]\u000a
p505
aVCCN(C(C)C)C(C)C\u000a
p506
aV[Cu]\u000a
p507
aVCCOP(=S)(OCC)SCSP(=S)(OCC)OCC\u000a
p508
aVC1=CC=C(C=C1)N=NC2=C(C=C(C=C2)N)NCl\u000a
p509
aVC1=CC(=C(C=C1CC(C(=O)O)N)O)O\u000a
p510
atp511
a.