(lp0
(i__main__
Molecule
p1
(dp2
S'drug_name'
p3
VRetin-A Micro (tretinoin gel) microsphere, 0.1%
p4
sS'molecule_name'
p5
Vtretinoin gel
p6
sS'disease'
p7
VAcne
p8
sS'smiles'
p9
VCC1=C(C(CCC1)(C)C)C=CC(=CC=CC(=CC(=O)O)C)C\u000a
p10
sba(i__main__
Molecule
p11
(dp12
g3
VSignifor LAR (pasireotide)
p13
sg5
Vpasireotide
p14
sg7
VAcromegaly
p15
sg9
VC1C(CN2C1C(=O)NC(C(=O)NC(C(=O)NC(C(=O)NC(C(=O)NC(C2=O)CC3=CC=CC=C3)CC4=CC=C(C=C4)OCC5=CC=CC=C5)CCCCN)CC6=CNC7=CC=CC=C76)C8=CC=CC=C8)OC(=O)NCCN\u000a
p16
sba(i__main__
Molecule
p17
(dp18
g3
VIDHIFA (enasidenib)
p19
sg5
Venasidenib
p20
sg7
VAcute Myeloid Leukemia
p21
sg9
VCC(C)(CNC1=NC(=NC(=N1)NC2=CC(=NC=C2)C(F)(F)F)C3=NC(=CC=C3)C(F)(F)F)O\u000a
p22
sba(i__main__
Molecule
p23
(dp24
g3
VBelbuca (buprenorphine) 
p25
sg5
Vbuprenorphine
p26
sg7
VAcute Pain
p27
sg9
VCC(C)(C)C(C)(C1CC23CCC1(C4C25CCN(C3CC6=C5C(=C(C=C6)O)O4)CC7CC7)OC)O\u000a
p28
sba(i__main__
Molecule
p29
(dp30
g3
VTivorbex (indomethacin)
p31
sg5
Vindomethacin
p32
sg7
g27
sg9
VCC1=C(C2=C(N1C(=O)C3=CC=C(C=C3)Cl)C=CC(=C2)OC)CC(=O)O\u000a
p33
sba(i__main__
Molecule
p34
(dp35
g3
VVivlodex (meloxicam) 
p36
sg5
Vmeloxicam
p37
sg7
g27
sg9
VCC1=CN=C(S1)NC(=O)C2=C(C3=CC=CC=C3S(=O)(=O)N2C)O\u000a
p38
sba(i__main__
Molecule
p39
(dp40
g3
VZingo (lidocaine hydrochloride monohydrate)
p41
sg5
Vlidocaine hydrochloride monohydrate
p42
sg7
g27
sg9
VCCN(CC)CC(=O)NC1=C(C=CC=C1C)C.Cl\u000a
p43
sba(i__main__
Molecule
p44
(dp45
g3
VBunavail (buprenorphine and naloxone)
p46
sg5
Vbuprenorphine and naloxone
p47
sg7
VAddictions
p48
sg9
VCC(C)(C)C(C)(C1CC23CCC1(C4C25CCN(C3CC6=C5C(=C(C=C6)O)O4)CC7CC7)OC)O.C=CCN1CCC23C4C(=O)CCC2(C1CC5=C3C(=C(C=C5)O)O4)O\u000a
p49
sba(i__main__
Molecule
p50
(dp51
g3
VZubsolv (buprenorphine and naloxone)
p52
sg5
Vbuprenorphine and naloxone
p53
sg7
g48
sg9
VCC(C)(C)C(C)(C1CC23CCC1(C4C25CCN(C3CC6=C5C(=C(C=C6)O)O4)CC7CC7)OC)O.C=CCN1CCC23C4C(=O)CCC2(C1CC5=C3C(=C(C=C5)O)O4)O\u000a
p54
sba(i__main__
Molecule
p55
(dp56
g3
VBunavail (buprenorphine and naloxone)
p57
sg5
Vbuprenorphine and naloxone
p58
sg7
VAdverse Effects, Drugs
p59
sg9
VCC(C)(C)C(C)(C1CC23CCC1(C4C25CCN(C3CC6=C5C(=C(C=C6)O)O4)CC7CC7)OC)O.C=CCN1CCC23C4C(=O)CCC2(C1CC5=C3C(=C(C=C5)O)O4)O\u000a
p60
sba(i__main__
Molecule
p61
(dp62
g3
VMovantik (naloxegol)
p63
sg5
Vnaloxegol
p64
sg7
g59
sg9
VCOCCOCCOCCOCCOCCOCCOCCOC1CCC2(C3CC4=C5C2(C1OC5=C(C=C4)O)CCN3CC=C)O\u000a
p65
sba(i__main__
Molecule
p66
(dp67
g3
VMyalept (metreleptin for injection)
p68
sg5
Vmetreleptin for injection
p69
sg7
g59
sg9
VO\u000a
p70
sba(i__main__
Molecule
p71
(dp72
g3
VSustol (granisetron)
p73
sg5
Vgranisetron
p74
sg7
g59
sg9
VCN1C2CCCC1CC(C2)NC(=O)C3=NN(C4=CC=CC=C43)C\u000a
p75
sba(i__main__
Molecule
p76
(dp77
g3
VSymproic (naldemedine)
p78
sg5
Vnaldemedine
p79
sg7
g59
sg9
VCC(C)(C1=NC(=NO1)C2=CC=CC=C2)NC(=O)C3=C(C4C56CCN(C(C5(C3)O)CC7=C6C(=C(C=C7)O)O4)CC8CC8)O\u000a
p80
sba(i__main__
Molecule
p81
(dp82
g3
VVistogard (uridine triacetate)
p83
sg5
Vuridine triacetate
p84
sg7
g59
sg9
VCC(=O)OCC1C(C(C(O1)N2C=CC(=O)NC2=O)OC(=O)C)OC(=O)C\u000a
p85
sba(i__main__
Molecule
p86
(dp87
g3
VClarithromycin (Biaxin)
p88
sg5
VBiaxin
p89
sg7
VAIDS and AIDS related infections
p90
sg9
VCCC1C(C(C(C(=O)C(CC(C(C(C(C(C(=O)O1)C)OC2CC(C(C(O2)C)O)(C)OC)C)OC3C(C(CC(O3)C)N(C)C)O)(C)OC)C)C)O)(C)O\u000a
p91
sba(i__main__
Molecule
p92
(dp93
g3
VValcyte (valganciclovir HCl)
p94
sg5
Vvalganciclovir HCl
p95
sg7
g90
sg9
VCC(C)C(C(=O)OCC(CO)OCN1C=NC2=C1NC(=NC2=O)N)N.Cl\u000a
p96
sba(i__main__
Molecule
p97
(dp98
g3
VCampral (acamprosate calcium)
p99
sg5
Vacamprosate calcium
p100
sg7
VAlcohol Dependence
p101
sg9
VCC(=O)NCCCS(=O)(=O)[O-].CC(=O)NCCCS(=O)(=O)[O-].[Ca+2]\u000a
p102
sba(i__main__
Molecule
p103
(dp104
g3
VQnasl (beclomethasone dipropionate) nasal aerosol
p105
sg5
Vbeclomethasone dipropionate
p106
sg7
VAllergies & Asthma
p107
sg9
VCCC(=O)OCC(=O)C1(C(CC2C1(CC(C3(C2CCC4=CC(=O)C=CC43C)Cl)O)C)C)OC(=O)CC\u000a
p108
sba(i__main__
Molecule
p109
(dp110
g3
VAllegra (fexofenadine hydrochloride)
p111
sg5
Vfexofenadine hydrochloride
p112
sg7
VAllergy
p113
sg9
VCC(C)(C1=CC=C(C=C1)C(CCCN2CCC(CC2)C(C3=CC=CC=C3)(C4=CC=CC=C4)O)O)C(=O)O.Cl\u000a
p114
sba(i__main__
Molecule
p115
(dp116
g3
VAllegra-D
p117
sg5
VAllegra-
p118
sg7
g113
sg9
VCC(C)(C1=CC=C(C=C1)C(CCCN2CCC(CC2)C(C3=CC=CC=C3)(C4=CC=CC=C4)O)O)C(=O)O.Cl\u000a
p119
sba(i__main__
Molecule
p120
(dp121
g3
VAtrovent (ipratropium bromide)
p122
sg5
Vipratropium bromide
p123
sg7
g113
sg9
VCC(C)[N+]1(C2CCC1CC(C2)OC(=O)C(CO)C3=CC=CC=C3)C.[Br-]\u000a
p124
sba(i__main__
Molecule
p125
(dp126
g3
VClarinex
p127
sg5
VClarine
p128
sg7
g113
sg9
VC1CC2=C(C=CC(=C2)Cl)C(=C3CCNCC3)C4=C1C=CC=N4\u000a
p129
sba(i__main__
Molecule
p130
(dp131
g3
VClemastine fumarate syrup
p132
sg5
VClemastine fumarate syru
p133
sg7
g113
sg9
VCC(C1=CC=CC=C1)(C2=CC=C(C=C2)Cl)OCCC3CCCN3C.C(=CC(=O)O)C(=O)O\u000a
p134
sba(i__main__
Molecule
p135
(dp136
g3
VNasacort AQ (triamcinolone acetonide) Nasal Spray
p137
sg5
Vtriamcinolone acetonide
p138
sg7
g113
sg9
VCC1(OC2CC3C4CCC5=CC(=O)C=CC5(C4(C(CC3(C2(O1)C(=O)CO)C)O)F)C)C\u000a
p139
sba(i__main__
Molecule
p140
(dp141
g3
VPatanase (olopatadine hydrochloride)
p142
sg5
Volopatadine hydrochloride
p143
sg7
g113
sg9
VCN(C)CCC=C1C2=CC=CC=C2COC3=C1C=C(C=C3)CC(=O)O.Cl\u000a
p144
sba(i__main__
Molecule
p145
(dp146
g3
VQnasl (beclomethasone dipropionate) nasal aerosol
p147
sg5
Vbeclomethasone dipropionate
p148
sg7
g113
sg9
VCCC(=O)OCC(=O)C1(C(CC2C1(CC(C3(C2CCC4=CC(=O)C=CC43C)Cl)O)C)C)OC(=O)CC\u000a
p149
sba(i__main__
Molecule
p150
(dp151
g3
VTavist (clemastine fumarate)
p152
sg5
Vclemastine fumarate
p153
sg7
g113
sg9
VCC(C1=CC=CC=C1)(C2=CC=C(C=C2)Cl)OCCC3CCCN3C.C(=CC(=O)O)C(=O)O\u000a
p154
sba(i__main__
Molecule
p155
(dp156
g3
VVeramyst (fluticasone furoate)
p157
sg5
Vfluticasone furoate
p158
sg7
g113
sg9
VCC1CC2C3CC(C4=CC(=O)C=CC4(C3(C(CC2(C1(C(=O)SCF)OC(=O)C5=CC=CO5)C)O)F)C)F\u000a
p159
sba(i__main__
Molecule
p160
(dp161
g3
VXyzal (levocetirizine dihydrochloride)
p162
sg5
Vlevocetirizine dihydrochloride
p163
sg7
g113
sg9
VC1CN(CCN1CCOCC(=O)O)C(C2=CC=CC=C2)C3=CC=C(C=C3)Cl.Cl.Cl\u000a
p164
sba(i__main__
Molecule
p165
(dp166
g3
VZyrtec (cetirizine HCl)
p167
sg5
Vcetirizine HCl
p168
sg7
g113
sg9
VC1CN(CCN1CCOCC(=O)O)C(C2=CC=CC=C2)C3=CC=C(C=C3)Cl\u000a
p169
sba(i__main__
Molecule
p170
(dp171
g3
VClaritin Syrup (loratadine)
p172
sg5
Vloratadine
p173
sg7
VAllergy (Pediatric)
p174
sg9
VCCOC(=O)N1CCC(=C2C3=C(CCC4=C2N=CC=C4)C=C(C=C3)Cl)CC1\u000a
p175
sba(i__main__
Molecule
p176
(dp177
g3
VQnasl (beclomethasone dipropionate) nasal aerosol
p178
sg5
Vbeclomethasone dipropionate
p179
sg7
g174
sg9
VCCC(=O)OCC(=O)C1(C(CC2C1(CC(C3(C2CCC4=CC(=O)C=CC43C)Cl)O)C)C)OC(=O)CC\u000a
p180
sba(i__main__
Molecule
p181
(dp182
g3
VARICEPT (donepezil hydrochloride)
p183
sg5
Vdonepezil hydrochloride
p184
sg7
VAlzheimer's Disease
p185
sg9
VCOC1=C(C=C2C(=C1)CC(C2=O)CC3CCN(CC3)CC4=CC=CC=C4)OC.Cl\u000a
p186
sba(i__main__
Molecule
p187
(dp188
g3
VExelon (rivastigmine tartrate)
p189
sg5
Vrivastigmine tartrate
p190
sg7
g185
sg9
VCCN(C)C(=O)OC1=CC=CC(=C1)C(C)N(C)C\u000a
p191
sba(i__main__
Molecule
p192
(dp193
g3
VExelon (rivastigmine tartrate)
p194
sg5
Vrivastigmine tartrate
p195
sg7
g185
sg9
VCCN(C)C(=O)OC1=CC=CC(=C1)C(C)N(C)C\u000a
p196
sba(i__main__
Molecule
p197
(dp198
g3
VFemstat 3 (butoconazole nitrate 2%)
p199
sg5
Vbutoconazole nitrate 2%
p200
sg7
g185
sg9
VC1=CC(=C(C(=C1)Cl)SC(CCC2=CC=C(C=C2)Cl)CN3C=CN=C3)Cl.[N+](=O)(O)[O-]\u000a
p201
sba(i__main__
Molecule
p202
(dp203
g3
VNamenda (memantine HCl)
p204
sg5
Vmemantine HCl
p205
sg7
g185
sg9
VCC12CC3CC(C1)(CC(C3)(C2)N)C.Cl\u000a
p206
sba(i__main__
Molecule
p207
(dp208
g3
VReminyl (galantamine hydrobromide)
p209
sg5
Vgalantamine hydrobromide
p210
sg7
g185
sg9
VCN1CCC23C=CC(CC2OC4=C(C=CC(=C34)C1)OC)O\u000a
p211
sba(i__main__
Molecule
p212
(dp213
g3
VPrometrium
p214
sg5
VPrometriu
p215
sg7
VAmenorrhea
p216
sg9
V[Pm]\u000a
p217
sba(i__main__
Molecule
p218
(dp219
g3
VRadicava (edaravone)
p220
sg5
Vedaravone
p221
sg7
VAmyotrophic Lateral Sclerosis (ALS)
p222
sg9
VCC1=NN(C(=O)C1)C2=CC=CC=C2\u000a
p223
sba(i__main__
Molecule
p224
(dp225
g3
VRilutek (riluzole)
p226
sg5
Vriluzole
p227
sg7
g222
sg9
VC1=CC2=C(C=C1OC(F)(F)F)SC(=N2)N\u000a
p228
sba(i__main__
Molecule
p229
(dp230
g3
VRectiv (nitroglycerin) ointment 0.4%
p231
sg5
Vnitroglycerin
p232
sg7
VAnal Fissures
p233
sg9
VC(C(CO[N+](=O)[O-])O[N+](=O)[O-])O[N+](=O)[O-]\u000a
p234
sba(i__main__
Molecule
p235
(dp236
g3
VElelyso (taliglucerase alfa)
p237
sg5
Vtaliglucerase alfa
p238
sg7
VAnemia
p239
sg9
VC1=CC(=CC(=C1)Cl)C(F)(F)F\u000a
p240
sba(i__main__
Molecule
p241
(dp242
g3
VFerriprox (deferiprone)
p243
sg5
Vdeferiprone
p244
sg7
g239
sg9
VCC1=C(C(=O)C=CN1C)O\u000a
p245
sba(i__main__
Molecule
p246
(dp247
g3
VZingo (lidocaine hydrochloride monohydrate)
p248
sg5
Vlidocaine hydrochloride monohydrate
p249
sg7
VAnesthesia (Local)
p250
sg9
VCCN(CC)CC(=O)NC1=C(C=CC=C1C)C.Cl\u000a
p251
sba(i__main__
Molecule
p252
(dp253
g3
VNitrostat (nitroglycerin) Tablets
p254
sg5
Vnitroglycerin
p255
sg7
VAngina
p256
sg9
VC(C(CO[N+](=O)[O-])O[N+](=O)[O-])O[N+](=O)[O-]\u000a
p257
sba(i__main__
Molecule
p258
(dp259
g3
VPosicor
p260
sg5
VPosico
p261
sg7
g256
sg9
VCC(C)C1C2=C(CCC1(CCN(C)CCCC3=NC4=CC=CC=C4N3)OC(=O)COC)C=C(C=C2)F\u000a
p262
sba(i__main__
Molecule
p263
(dp264
g3
VRanexa (ranolazine)
p265
sg5
Vranolazine
p266
sg7
g256
sg9
VCC1=C(C(=CC=C1)C)NC(=O)CN2CCN(CC2)CC(COC3=CC=CC=C3OC)O\u000a
p267
sba(i__main__
Molecule
p268
(dp269
g3
VTiazac (diltiazem hydrochloride)
p270
sg5
Vdiltiazem hydrochloride
p271
sg7
g256
sg9
VCC(=O)OC1C(SC2=CC=CC=C2N(C1=O)CCN(C)C)C3=CC=C(C=C3)OC.Cl\u000a
p272
sba(i__main__
Molecule
p273
(dp274
g3
VToprol-XL (metoprolol succinate)
p275
sg5
Vmetoprolol succinate
p276
sg7
g256
sg9
VCC(C)NCC(COC1=CC=C(C=C1)CCOC)O\u000a
p277
sba(i__main__
Molecule
p278
(dp279
g3
VRayos (prednisone) delayed-release tablets
p280
sg5
Vprednisone
p281
sg7
VAnkylosing Spondylitis
p282
sg9
VCC12CC(=O)C3C(C1CCC2(C(=O)CO)O)CCC4=CC(=O)C=CC34C\u000a
p283
sba(i__main__
Molecule
p284
(dp285
g3
VLodine XL (etodolac)
p286
sg5
Vetodolac
p287
sg7
VArthritis and Arthritic Pain
p288
sg9
VCCC1=CC=CC2=C1NC3=C2CCOC3(CC)CC(=O)O\u000a
p289
sba(i__main__
Molecule
p290
(dp291
g3
VOtezla (apremilast)
p292
sg5
Vapremilast
p293
sg7
g288
sg9
VCCOC1=C(C=CC(=C1)C(CS(=O)(=O)C)N2C(=O)C3=C(C2=O)C(=CC=C3)NC(=O)C)OC\u000a
p294
sba(i__main__
Molecule
p295
(dp296
g3
VRayos (prednisone) delayed-release tablets
p297
sg5
Vprednisone
p298
sg7
g288
sg9
VCC12CC(=O)C3C(C1CCC2(C(=O)CO)O)CCC4=CC(=O)C=CC34C\u000a
p299
sba(i__main__
Molecule
p300
(dp301
g3
VTolmetin Sodium
p302
sg5
VTolmetin Sodiu
p303
sg7
g288
sg9
VCC1=CC=C(C=C1)C(=O)C2=CC=C(N2C)CC(=O)[O-].[Na+]\u000a
p304
sba(i__main__
Molecule
p305
(dp306
g3
VXeljanz (tofacitinib)
p307
sg5
Vtofacitinib
p308
sg7
g288
sg9
VCC1CCN(CC1N(C)C2=NC=NC3=C2C=CN3)C(=O)CC#N\u000a
p309
sba(i__main__
Molecule
p310
(dp311
g3
VCresemba (isavuconazonium sulfate) 
p312
sg5
Visavuconazonium sulfate
p313
sg7
VAspergillosis
p314
sg9
VCC(C1=NC(=CS1)C2=CC=C(C=C2)C#N)C(CN3C=[N+](C=N3)C(C)OC(=O)N(C)C4=C(C=CC=N4)COC(=O)CNC)(C5=C(C=CC(=C5)F)F)O\u000a
p315
sba(i__main__
Molecule
p316
(dp317
g3
VAdvair (fluticasone propionate and salmeterol)
p318
sg5
Vfluticasone propionate and salmeterol
p319
sg7
VAsthma
p320
sg9
VC1=CC=C(C=C1)CCCCOCCCCCCNCC(C2=CC(=C(C=C2)O)CO)O\u000a
p321
sba(i__main__
Molecule
p322
(dp323
g3
VAlvesco (ciclesonide)
p324
sg5
Vciclesonide
p325
sg7
g320
sg9
VCC(C)C(=O)OCC(=O)C12C(CC3C1(CC(C4C3CCC5=CC(=O)C=CC45C)O)C)OC(O2)C6CCCCC6\u000a
p326
sba(i__main__
Molecule
p327
(dp328
g3
VAzmacort (triamcinolone acetonide) Inhalation Aerosol
p329
sg5
Vtriamcinolone acetonide
p330
sg7
g320
sg9
VCC1(OC2CC3C4CCC5=CC(=O)C=CC5(C4(C(CC3(C2(O1)C(=O)CO)C)O)F)C)C\u000a
p331
sba(i__main__
Molecule
p332
(dp333
g3
VDulera (mometasone furoate + formoterol fumarate dihydrate)
p334
sg5
Vmometasone furoate + formoterol fumarate dihydrate
p335
sg7
g320
sg9
VCC1CC2C3CCC4=CC(=O)C=CC4(C3(C(CC2(C1(C(=O)CCl)OC(=O)C5=CC=CO5)C)O)Cl)C.CC(CC1=CC=C(C=C1)OC)NCC(C2=CC(=C(C=C2)O)NC=O)O.C(=CC(=O)O)C(=O)O.O.O\u000a
p336
sba(i__main__
Molecule
p337
(dp338
g3
VQvar (beclomethasone dipropionate)
p339
sg5
Vbeclomethasone dipropionate
p340
sg7
g320
sg9
VCCC(=O)OCC(=O)C1(C(CC2C1(CC(C3(C2CCC4=CC(=O)C=CC43C)Cl)O)C)C)OC(=O)CC\u000a
p341
sba(i__main__
Molecule
p342
(dp343
g3
VRayos (prednisone) delayed-release tablets
p344
sg5
Vprednisone
p345
sg7
g320
sg9
VCC12CC(=O)C3C(C1CCC2(C(=O)CO)O)CCC4=CC(=O)C=CC34C\u000a
p346
sba(i__main__
Molecule
p347
(dp348
g3
VSerevent
p349
sg5
VSereven
p350
sg7
g320
sg9
VC1=CC=C(C=C1)CCCCOCCCCCCNCC(C2=CC(=C(C=C2)O)CO)O\u000a
p351
sba(i__main__
Molecule
p352
(dp353
g3
VSingulair
p354
sg5
VSingulai
p355
sg7
g320
sg9
VCC(C)(C1=CC=CC=C1CCC(C2=CC=CC(=C2)C=CC3=NC4=C(C=CC(=C4)Cl)C=C3)SCC5(CC5)CC(=O)O)O\u000a
p356
sba(i__main__
Molecule
p357
(dp358
g3
VTilade (nedocromil sodium)
p359
sg5
Vnedocromil sodium
p360
sg7
g320
sg9
VCCCC1=C2C(=CC3=C1OC(=CC3=O)C(=O)[O-])C(=O)C=C(N2CC)C(=O)[O-].[Na+].[Na+]\u000a
p361
sba(i__main__
Molecule
p362
(dp363
g3
VTilade (nedocromil sodium)
p364
sg5
Vnedocromil sodium
p365
sg7
g320
sg9
VCCCC1=C2C(=CC3=C1OC(=CC3=O)C(=O)[O-])C(=O)C=C(N2CC)C(=O)[O-].[Na+].[Na+]\u000a
p366
sba(i__main__
Molecule
p367
(dp368
g3
VZyflo (Zileuton)
p369
sg5
VZileuton
p370
sg7
g320
sg9
VCC(C1=CC2=CC=CC=C2S1)N(C(=O)N)O\u000a
p371
sba(i__main__
Molecule
p372
(dp373
g3
VTilade (nedocromil sodium)
p374
sg5
Vnedocromil sodium
p375
sg7
VAsthma (Pediatric)
p376
sg9
VCCCC1=C2C(=CC3=C1OC(=CC3=O)C(=O)[O-])C(=O)C=C(N2CC)C(=O)[O-].[Na+].[Na+]\u000a
p377
sba(i__main__
Molecule
p378
(dp379
g3
VLescol (fluvastatin sodium)
p380
sg5
Vfluvastatin sodium
p381
sg7
VAtherosclerosis
p382
sg9
VCC(C)N1C2=CC=CC=C2C(=C1C=CC(CC(CC(=O)O)O)O)C3=CC=C(C=C3)F\u000a
p383
sba(i__main__
Molecule
p384
(dp385
g3
VPlavix (clopidogrel bisulfate)
p386
sg5
Vclopidogrel bisulfate
p387
sg7
g382
sg9
VCOC(=O)C(C1=CC=CC=C1Cl)N2CCC3=C(C2)C=CS3\u000a
p388
sba(i__main__
Molecule
p389
(dp390
g3
VLamisil (terbinafine hydrochloride) Solution, 1%
p391
sg5
Vterbinafine hydrochloride
p392
sg7
VAthlete's Foot (Tinea Pedis)
p393
sg9
VCC(C)(C)C#CC=CCN(C)CC1=CC=CC2=CC=CC=C21.Cl\u000a
p394
sba(i__main__
Molecule
p395
(dp396
g3
VDesonate (desonide)
p397
sg5
Vdesonide
p398
sg7
VAtopic Dermatitis
p399
sg9
VCC1(OC2CC3C4CCC5=CC(=O)C=CC5(C4C(CC3(C2(O1)C(=O)CO)C)O)C)C\u000a
p400
sba(i__main__
Molecule
p401
(dp402
g3
VElidel
p403
sg5
VElide
p404
sg7
g399
sg9
VC1=CC=C(C=C1)P(=C=C=O)(C2=CC=CC=C2)C3=CC=CC=C3\u000a
p405
sba(i__main__
Molecule
p406
(dp407
g3
VProtopic (tacrolimus) ointment
p408
sg5
Vtacrolimus
p409
sg7
g399
sg9
VCC1CC(C2C(CC(C(O2)(C(=O)C(=O)N3CCCCC3C(=O)OC(C(C(CC(=O)C(C=C(C1)C)CC=C)O)C)C(=CC4CCC(C(C4)OC)O)C)O)C)OC)OC\u000a
p410
sba(i__main__
Molecule
p411
(dp412
g3
VVerdeso (desonide)
p413
sg5
Vdesonide
p414
sg7
g399
sg9
VCC1(OC2CC3C4CCC5=CC(=O)C=CC5(C4C(CC3(C2(O1)C(=O)CO)C)O)C)C\u000a
p415
sba(i__main__
Molecule
p416
(dp417
g3
VCardizem (R)  (Diltiazem HC1 for injection) Monvial (R)
p418
sg5
VR
p419
sg7
VAtrial Fibrillation
p420
sg9
VCC(C)(C)OC(=O)N1CCC(C1)O\u000a
p421
sba(i__main__
Molecule
p422
(dp423
g3
VEliquis (apixaban)
p424
sg5
Vapixaban
p425
sg7
g420
sg9
VCOC1=CC=C(C=C1)N2C3=C(CCN(C3=O)C4=CC=C(C=C4)N5CCCCC5=O)C(=N2)C(=O)N\u000a
p426
sba(i__main__
Molecule
p427
(dp428
g3
VMultaq (dronedarone)
p429
sg5
Vdronedarone
p430
sg7
g420
sg9
VCCCCC1=C(C2=C(O1)C=CC(=C2)NS(=O)(=O)C)C(=O)C3=CC=C(C=C3)OCCCN(CCCC)CCCC\u000a
p431
sba(i__main__
Molecule
p432
(dp433
g3
VPradaxa (dabigatran etexilate mesylate)
p434
sg5
Vdabigatran etexilate mesylate
p435
sg7
g420
sg9
VCN1C2=C(C=C(C=C2)C(=O)N(CCC(=O)O)C3=CC=CC=N3)N=C1CNC4=CC=C(C=C4)C(=N)N\u000a
p436
sba(i__main__
Molecule
p437
(dp438
g3
VRythmol
p439
sg5
VRythmo
p440
sg7
g420
sg9
VCCCNCC(COC1=CC=CC=C1C(=O)CCC2=CC=CC=C2)O\u000a
p441
sba(i__main__
Molecule
p442
(dp443
g3
VSavaysa (edoxaban)
p444
sg5
Vedoxaban
p445
sg7
g420
sg9
VCN1CCC2=C(C1)SC(=N2)C(=O)NC3CC(CCC3NC(=O)C(=O)NC4=NC=C(C=C4)Cl)C(=O)N(C)C\u000a
p446
sba(i__main__
Molecule
p447
(dp448
g3
VXarelto (rivaroxaban)
p449
sg5
Vrivaroxaban
p450
sg7
g420
sg9
VC1COCC(=O)N1C2=CC=C(C=C2)N3CC(OC3=O)CNC(=O)C4=CC=C(S4)Cl\u000a
p451
sba(i__main__
Molecule
p452
(dp453
g3
VXarelto (rivaroxaban)
p454
sg5
Vrivaroxaban
p455
sg7
g420
sg9
VC1COCC(=O)N1C2=CC=C(C=C2)N3CC(OC3=O)CNC(=O)C4=CC=C(S4)Cl\u000a
p456
sba(i__main__
Molecule
p457
(dp458
g3
VQuillivant XR (methylphenidate hydrochloride)
p459
sg5
Vmethylphenidate hydrochloride
p460
sg7
VAttention Deficit/Hyperactivity Disorder (ADHD - Adults)
p461
sg9
VCOC(=O)C(C1CCCCN1)C2=CC=CC=C2.Cl\u000a
p462
sba(i__main__
Molecule
p463
(dp464
g3
VConcerta
p465
sg5
VConcert
p466
sg7
VAttention Deficit/Hyperactivity Disorder (ADHD - Pediatric)
p467
sg9
VCOC(=O)C(C1CCCCN1)C2=CC=CC=C2\u000a
p468
sba(i__main__
Molecule
p469
(dp470
g3
VKapvay (clonidine hydrochloride)
p471
sg5
Vclonidine hydrochloride
p472
sg7
g467
sg9
VC1CN=C(N1)NC2=C(C=CC=C2Cl)Cl.Cl\u000a
p473
sba(i__main__
Molecule
p474
(dp475
g3
VMetadate CD
p476
sg5
VMetadate C
p477
sg7
g467
sg9
VCOC(=O)C(C1CCCCN1)C2=CC=CC=C2\u000a
p478
sba(i__main__
Molecule
p479
(dp480
g3
VRitalin LA (methylphenidate HCl)
p481
sg5
Vmethylphenidate HCl
p482
sg7
g467
sg9
VCOC(=O)C(C1CCCCN1)C2=CC=CC=C2\u000a
p483
sba(i__main__
Molecule
p484
(dp485
g3
VStrattera (atomoxetine HCl)
p486
sg5
Vatomoxetine HCl
p487
sg7
g467
sg9
VCC1=CC=CC=C1OC(CCNC)C2=CC=CC=C2.Cl\u000a
p488
sba(i__main__
Molecule
p489
(dp490
g3
VVyvanse (Lisdexamfetamine Dimesylate)
p491
sg5
VLisdexamfetamine Dimesylate
p492
sg7
g467
sg9
VCC(CC1=CC=CC=C1)NC(=O)C(CCCCN)N.CS(=O)(=O)O.CS(=O)(=O)O\u000a
p493
sba(i__main__
Molecule
p494
(dp495
g3
VBaxdela (delafloxacin) tablets and injection
p496
sg5
Vdelafloxacin
p497
sg7
VBacterial Infections
p498
sg9
VC1C(CN1C2=C(C=C3C(=C2Cl)N(C=C(C3=O)C(=O)O)C4=NC(=C(C=C4F)F)N)F)O\u000a
p499
sba(i__main__
Molecule
p500
(dp501
g3
VDalvance (dalbavancin)
p502
sg5
Vdalbavancin
p503
sg7
g498
sg9
VCC(C)CCCCCCCCC(=O)NC1C(C(C(OC1OC2=C3C=C4C=C2OC5=C(C=C(C=C5)C(C6C(=O)NC(C7=CC(=CC(=C7C8=C(C=CC(=C8)C(C(=O)N6)NC(=O)C4NC(=O)C9C1=CC(=CC(=C1Cl)O)OC1=C(C=CC(=C1)C(C(=O)NC(CC1=CC=C(O3)C=C1)C(=O)N9)NC)O)O)OC1C(C(C(C(O1)CO)O)O)O)O)C(=O)NCCCN(C)C)O)Cl)C(=O)O)O)O\u000a
p504
sba(i__main__
Molecule
p505
(dp506
g3
VInvanz
p507
sg5
VInvan
p508
sg7
g498
sg9
VC1CC2=CC=CC=C2C1\u000a
p509
sba(i__main__
Molecule
p510
(dp511
g3
VOmnicef
p512
sg5
VOmnice
p513
sg7
g498
sg9
VC=CC1=C(N2C(C(C2=O)NC(=O)C(=NO)C3=CSC(=N3)N)SC1)C(=O)O\u000a
p514
sba(i__main__
Molecule
p515
(dp516
g3
VOrbactiv (oritavancin)
p517
sg5
Voritavancin
p518
sg7
g498
sg9
VCC1C(C(CC(O1)OC2C3C(=O)NC(C4=CC(=CC(=C4C5=C(C=CC(=C5)C(C(=O)N3)NC(=O)C6C7=CC(=C(C(=C7)OC8=C(C=C(C=C8)C(C(C(=O)NC(C(=O)N6)CC(=O)N)NC(=O)C(CC(C)C)NC)O)Cl)OC9C(C(C(C(O9)CO)O)O)OC1CC(C(C(O1)C)O)(C)NCC1=CC=C(C=C1)C1=CC=C(C=C1)Cl)OC1=C(C=C2C=C1)Cl)O)O)O)C(=O)O)(C)N)O.OP(=O)(O)O.OP(=O)(O)O\u000a
p519
sba(i__main__
Molecule
p520
(dp521
g3
VSirturo (bedaquiline)
p522
sg5
Vbedaquiline
p523
sg7
g498
sg9
VCN(C)CCC(C1=CC=CC2=CC=CC=C21)(C(C3=CC=CC=C3)C4=C(N=C5C=CC(=CC5=C4)Br)OC)O\u000a
p524
sba(i__main__
Molecule
p525
(dp526
g3
VSivextro (tedizolid phosphate) 
p527
sg5
Vtedizolid phosphate
p528
sg7
g498
sg9
VCN1N=C(N=N1)C2=NC=C(C=C2)C3=C(C=C(C=C3)N4CC(OC4=O)COP(=O)(O)O)F\u000a
p529
sba(i__main__
Molecule
p530
(dp531
g3
VSolosec (secnidazole) 
p532
sg5
Vsecnidazole
p533
sg7
g498
sg9
VCC1=NC=C(N1CC(C)O)[N+](=O)[O-]\u000a
p534
sba(i__main__
Molecule
p535
(dp536
g3
VSpectracef
p537
sg5
VSpectrace
p538
sg7
g498
sg9
VCC1=C(SC=N1)C=CC2=C(N3C(C(C3=O)NC(=O)C(=NOC)C4=CSC(=N4)N)SC2)C(=O)OCOC(=O)C(C)(C)C\u000a
p539
sba(i__main__
Molecule
p540
(dp541
g3
VSynercid I.V.
p542
sg5
VSynercid I.V
p543
sg7
g498
sg9
VCCC1C(=O)N2CCCC2C(=O)N(C(C(=O)N3CC(C(=O)CC3C(=O)NC(C(=O)OC(C(C(=O)N1)NC(=O)C4=C(C=CC=N4)O)C)C5=CC=CC=C5)CSC6CN7CCC6CC7)CC8=CC=C(C=C8)N(C)C)C.CCN(CC)CCS(=O)(=O)C1CCN2C1C(=O)OC(C(C=CC(=O)NCC=CC(=CC(CC(=O)CC3=NC(=CO3)C2=O)O)C)C)C(C)C\u000a
p544
sba(i__main__
Molecule
p545
(dp546
g3
VTeflaro (ceftaroline fosamil)
p547
sg5
Vceftaroline fosamil
p548
sg7
g498
sg9
VCCON=C(C1=NSC(=N1)NP(=O)(O)O)C(=O)NC2C3N(C2=O)C(=C(CS3)SC4=NC(=CS4)C5=CC=[N+](C=C5)C)C(=O)[O-]\u000a
p549
sba(i__main__
Molecule
p550
(dp551
g3
VTrovan
p552
sg5
VTrova
p553
sg7
g498
sg9
VCS(=O)(=O)O.C1C2C(C2N)CN1C3=C(C=C4C(=O)C(=CN(C4=N3)C5=C(C=C(C=C5)F)F)C(=O)O)F\u000a
p554
sba(i__main__
Molecule
p555
(dp556
g3
VVibativ (telavancin)
p557
sg5
Vtelavancin
p558
sg7
g498
sg9
VCCCCCCCCCCNCCNC1(CC(OC(C1O)C)OC2C(C(C(OC2OC3=C4C=C5C=C3OC6=C(C=C(C=C6)C(C(C(=O)NC(C(=O)NC5C(=O)NC7C8=CC(=C(C=C8)O)C9=C(C(=C(C=C9C(NC(=O)C(C(C1=CC(=C(O4)C=C1)Cl)O)NC7=O)C(=O)O)O)CNCP(=O)(O)O)O)CC(=O)N)NC(=O)C(CC(C)C)NC)O)Cl)CO)O)O)C\u000a
p559
sba(i__main__
Molecule
p560
(dp561
g3
VVibativ (telavancin)
p562
sg5
Vtelavancin
p563
sg7
g498
sg9
VCCCCCCCCCCNCCNC1(CC(OC(C1O)C)OC2C(C(C(OC2OC3=C4C=C5C=C3OC6=C(C=C(C=C6)C(C(C(=O)NC(C(=O)NC5C(=O)NC7C8=CC(=C(C=C8)O)C9=C(C(=C(C=C9C(NC(=O)C(C(C1=CC(=C(O4)C=C1)Cl)O)NC7=O)C(=O)O)O)CNCP(=O)(O)O)O)CC(=O)N)NC(=O)C(CC(C)C)NC)O)Cl)CO)O)O)C\u000a
p564
sba(i__main__
Molecule
p565
(dp566
g3
VZerbaxa (ceftolozane + tazobactam) 
p567
sg5
Vceftolozane + tazobactam
p568
sg7
g498
sg9
VCC1(C(N2C(S1(=O)=O)CC2=O)C(=O)O)CN3C=CN=N3.CC(C)(C(=O)O)ON=C(C1=NSC(=N1)N)C(=O)NC2C3N(C2=O)C(=C(CS3)C[N+]4=CC(=C(N4C)N)NC(=O)NCCN)C(=O)[O-]\u000a
p569
sba(i__main__
Molecule
p570
(dp571
g3
VBrineura (cerliponase alfa)
p572
sg5
Vcerliponase alfa
p573
sg7
VBatten Disease
p574
sg9
VC1=CC(=CC(=C1)Cl)C(F)(F)F\u000a
p575
sba(i__main__
Molecule
p576
(dp577
g3
VDutasteride
p578
sg5
VDutasterid
p579
sg7
VBenign Prostatic Hyperplasia (Enlarged Prostate)
p580
sg9
VCC12CCC3C(C1CCC2C(=O)NC4=C(C=CC(=C4)C(F)(F)F)C(F)(F)F)CCC5C3(C=CC(=O)N5)C\u000a
p581
sba(i__main__
Molecule
p582
(dp583
g3
VFLOMAX
p584
sg5
VFLOMA
p585
sg7
g580
sg9
VCCOC1=CC=CC=C1OCCNC(C)CC2=CC(=C(C=C2)OC)S(=O)(=O)N.Cl\u000a
p586
sba(i__main__
Molecule
p587
(dp588
g3
VSaphris (asenapine)
p589
sg5
Vasenapine
p590
sg7
VBipolar Disorder
p591
sg9
VCN1CC2C(C1)C3=C(C=CC(=C3)Cl)OC4=CC=CC=C24\u000a
p592
sba(i__main__
Molecule
p593
(dp594
g3
VVraylar (cariprazine)
p595
sg5
Vcariprazine
p596
sg7
g591
sg9
VCN(C)C(=O)NC1CCC(CC1)CCN2CCN(CC2)C3=C(C(=CC=C3)Cl)Cl\u000a
p597
sba(i__main__
Molecule
p598
(dp599
g3
VDetrol (tolterodine tartrate)
p600
sg5
Vtolterodine tartrate
p601
sg7
VBladder Disorders
p602
sg9
VCC1=CC(=C(C=C1)O)C(CCN(C(C)C)C(C)C)C2=CC=CC=C2\u000a
p603
sba(i__main__
Molecule
p604
(dp605
g3
VDetrol LA (tolterodine tartrate)
p606
sg5
Vtolterodine tartrate
p607
sg7
g602
sg9
VCC1=CC(=C(C=C1)O)C(CCN(C(C)C)C(C)C)C2=CC=CC=C2\u000a
p608
sba(i__main__
Molecule
p609
(dp610
g3
VGelnique (oxybutynin chloride)
p611
sg5
Voxybutynin chloride
p612
sg7
g602
sg9
VCCN(CC)CC#CCOC(=O)C(C1CCCCC1)(C2=CC=CC=C2)O\u000a
p613
sba(i__main__
Molecule
p614
(dp615
g3
VMesnex
p616
sg5
VMesne
p617
sg7
g602
sg9
VC(CS(=O)(=O)[O-])S.[Na+]\u000a
p618
sba(i__main__
Molecule
p619
(dp620
g3
VSanctura (trospium chloride)
p621
sg5
Vtrospium chloride
p622
sg7
g602
sg9
VC1CC[N+]2(C1)C3CCC2CC(C3)OC(=O)C(C4=CC=CC=C4)(C5=CC=CC=C5)O.[Cl-]\u000a
p623
sba(i__main__
Molecule
p624
(dp625
g3
VToviaz (fesoterodine fumarate)
p626
sg5
Vfesoterodine fumarate
p627
sg7
g602
sg9
VCC(C)C(=O)OC1=C(C=C(C=C1)CO)C(CCN(C(C)C)C(C)C)C2=CC=CC=C2.C(=CC(=O)O)C(=O)O\u000a
p628
sba(i__main__
Molecule
p629
(dp630
g3
VVesicare (solifenacin succinate)
p631
sg5
Vsolifenacin succinate
p632
sg7
g602
sg9
VC1CN2CCC1C(C2)OC(=O)N3CCC4=CC=CC=C4C3C5=CC=CC=C5.C(CC(=O)O)C(=O)O\u000a
p633
sba(i__main__
Molecule
p634
(dp635
g3
VLovenox (enoxaparin sodium) Injection
p636
sg5
Venoxaparin sodium
p637
sg7
VBlood Clots
p638
sg9
VCC(=O)NC1C(C(C(OC1O)COS(=O)(=O)O)OC2C(C(C(C(O2)C(=O)O)OC3C(C(C(C(O3)CO)OC4C(C(C(C(O4)C(=O)O)O)O)OS(=O)(=O)O)OS(=O)(=O)O)NS(=O)(=O)O)O)OS(=O)(=O)O)O\u000a
p639
sba(i__main__
Molecule
p640
(dp641
g3
VXarelto (rivaroxaban)
p642
sg5
Vrivaroxaban
p643
sg7
g638
sg9
VC1COCC(=O)N1C2=CC=C(C=C2)N3CC(OC3=O)CNC(=O)C4=CC=C(S4)Cl\u000a
p644
sba(i__main__
Molecule
p645
(dp646
g3
VXarelto (rivaroxaban)
p647
sg5
Vrivaroxaban
p648
sg7
g638
sg9
VC1COCC(=O)N1C2=CC=C(C=C2)N3CC(OC3=O)CNC(=O)C4=CC=C(S4)Cl\u000a
p649
sba(i__main__
Molecule
p650
(dp651
g3
VFerriprox (deferiprone)
p652
sg5
Vdeferiprone
p653
sg7
VBlood Transfusions
p654
sg9
VCC1=C(C(=O)C=CN1C)O\u000a
p655
sba(i__main__
Molecule
p656
(dp657
g3
VElelyso (taliglucerase alfa)
p658
sg5
Vtaliglucerase alfa
p659
sg7
VBone Diseases
p660
sg9
VC1=CC(=CC(=C1)Cl)C(F)(F)F\u000a
p661
sba(i__main__
Molecule
p662
(dp663
g3
VStrensiq (asfotase alfa)
p664
sg5
Vasfotase alfa
p665
sg7
g660
sg9
VC1=CC(=CC(=C1)Cl)C(F)(F)F\u000a
p666
sba(i__main__
Molecule
p667
(dp668
g3
VZometa (zoledronic acid)
p669
sg5
Vzoledronic acid
p670
sg7
VBone Metastases
p671
sg9
VC1=CN(C=N1)CC(O)(P(=O)(O)O)P(=O)(O)O\u000a
p672
sba(i__main__
Molecule
p673
(dp674
g3
VGattex (teduglutide)
p675
sg5
Vteduglutide
p676
sg7
VBowel Dysfunction
p677
sg9
VCCC(C)C(C(=O)NC(C(C)O)C(=O)NC(CC(=O)O)C(=O)O)NC(=O)C(CCCCN)NC(=O)C(C(C)O)NC(=O)C(CCC(=O)N)NC(=O)C(C(C)CC)NC(=O)C(CC(C)C)NC(=O)C(CC1=CNC2=CC=CC=C21)NC(=O)C(CC(=O)N)NC(=O)C(C(C)CC)NC(=O)C(CC3=CC=CC=C3)NC(=O)C(CC(=O)O)NC(=O)C(CCCNC(=N)N)NC(=O)C(C)NC(=O)C(C)NC(=O)C(CC(C)C)NC(=O)C(CC(=O)N)NC(=O)C(CC(=O)O)NC(=O)C(CC(C)C)NC(=O)C(C(C)CC)NC(=O)C(C(C)O)NC(=O)C(CC(=O)N)NC(=O)C(CCSC)NC(=O)C(CCC(=O)O)NC(=O)C(CC(=O)O)NC(=O)C(CO)NC(=O)C(CC4=CC=CC=C4)NC(=O)C(CO)NC(=O)CNC(=O)C(CC(=O)O)NC(=O)CNC(=O)C(CC5=CN=CN5)N\u000a
p678
sba(i__main__
Molecule
p679
(dp680
g3
VAfinitor (everolimus)
p681
sg5
Veverolimus
p682
sg7
VBreast Cancer
p683
sg9
VCC1CCC2CC(C(=CC=CC=CC(CC(C(=O)C(C(C(=CC(C(=O)CC(OC(=O)C3CCCCN3C(=O)C(=O)C1(O2)O)C(C)CC4CCC(C(C4)OC)OCCO)C)C)O)OC)C)C)C)OC\u000a
p684
sba(i__main__
Molecule
p685
(dp686
g3
VAfinitor (everolimus)
p687
sg5
Veverolimus
p688
sg7
g683
sg9
VCC1CCC2CC(C(=CC=CC=CC(CC(C(=O)C(C(C(=CC(C(=O)CC(OC(=O)C3CCCCN3C(=O)C(=O)C1(O2)O)C(C)CC4CCC(C(C4)OC)OCCO)C)C)O)OC)C)C)C)OC\u000a
p689
sba(i__main__
Molecule
p690
(dp691
g3
VAfinitor (everolimus)
p692
sg5
Veverolimus
p693
sg7
g683
sg9
VCC1CCC2CC(C(=CC=CC=CC(CC(C(=O)C(C(C(=CC(C(=O)CC(OC(=O)C3CCCCN3C(=O)C(=O)C1(O2)O)C(C)CC4CCC(C(C4)OC)OCCO)C)C)O)OC)C)C)C)OC\u000a
p694
sba(i__main__
Molecule
p695
(dp696
g3
VAfinitor (everolimus)
p697
sg5
Veverolimus
p698
sg7
g683
sg9
VCC1CCC2CC(C(=CC=CC=CC(CC(C(=O)C(C(C(=CC(C(=O)CC(OC(=O)C3CCCCN3C(=O)C(=O)C1(O2)O)C(C)CC4CCC(C(C4)OC)OCCO)C)C)O)OC)C)C)C)OC\u000a
p699
sba(i__main__
Molecule
p700
(dp701
g3
VArimidex (anastrozole)
p702
sg5
Vanastrozole
p703
sg7
g683
sg9
VCC(C)(C#N)C1=CC(=CC(=C1)CN2C=NC=N2)C(C)(C)C#N\u000a
p704
sba(i__main__
Molecule
p705
(dp706
g3
VAromasin Tablets
p707
sg5
VAromasin Tablet
p708
sg7
g683
sg9
VC1=CC(=C(C=C1C2=CC(=C(C=C2)N)N)N)N.Cl.Cl.Cl.Cl\u000a
p709
sba(i__main__
Molecule
p710
(dp711
g3
VEllence
p712
sg5
VEllenc
p713
sg7
g683
sg9
VCC1C(C(CC(O1)OC2CC(CC3=C(C4=C(C(=C23)O)C(=O)C5=C(C4=O)C=CC=C5OC)O)(C(=O)CO)O)N)O\u000a
p714
sba(i__main__
Molecule
p715
(dp716
g3
VEvista (raloxifene hydrochloride)
p717
sg5
Vraloxifene hydrochloride
p718
sg7
g683
sg9
VC1CCN(CC1)CCOC2=CC=C(C=C2)C(=O)C3=C(SC4=C3C=CC(=C4)O)C5=CC=C(C=C5)O.Cl\u000a
p719
sba(i__main__
Molecule
p720
(dp721
g3
VFaslodex (fulvestrant)
p722
sg5
Vfulvestrant
p723
sg7
g683
sg9
VCC12CCC3C(C1CCC2O)C(CC4=C3C=CC(=C4)O)CCCCCCCCCS(=O)CCCC(C(F)(F)F)(F)F\u000a
p724
sba(i__main__
Molecule
p725
(dp726
g3
VFemara (letrozole)
p727
sg5
Vletrozole
p728
sg7
g683
sg9
VC1=CC(=CC=C1C#N)C(C2=CC=C(C=C2)C#N)N3C=NC=N3\u000a
p729
sba(i__main__
Molecule
p730
(dp731
g3
VFemara (letrozole)
p732
sg5
Vletrozole
p733
sg7
g683
sg9
VC1=CC(=CC=C1C#N)C(C2=CC=C(C=C2)C#N)N3C=NC=N3\u000a
p734
sba(i__main__
Molecule
p735
(dp736
g3
VHalaven (eribulin mesylate)
p737
sg5
Veribulin mesylate
p738
sg7
g683
sg9
VCC1CC2CCC3C(=C)CC(O3)CCC45CC6C(O4)C7C(O6)C(O5)C8C(O7)CCC(O8)CC(=O)CC9C(CC(C1=C)O2)OC(C9OC)CC(CN)O.CS(=O)(=O)O\u000a
p739
sba(i__main__
Molecule
p740
(dp741
g3
VIbrance (palbociclib)
p742
sg5
Vpalbociclib
p743
sg7
g683
sg9
VCC1=C(C(=O)N(C2=NC(=NC=C12)NC3=NC=C(C=C3)N4CCNCC4)C5CCCC5)C(=O)C\u000a
p744
sba(i__main__
Molecule
p745
(dp746
g3
VIxempra (ixabepilone)
p747
sg5
Vixabepilone
p748
sg7
g683
sg9
VCC1CCCC2(C(O2)CC(NC(=O)CC(C(C(=O)C(C1O)C)(C)C)O)C(=CC3=CSC(=N3)C)C)C\u000a
p749
sba(i__main__
Molecule
p750
(dp751
g3
VKisqali (ribociclib)
p752
sg5
Vribociclib
p753
sg7
g683
sg9
VCN(C)C(=O)C1=CC2=CN=C(N=C2N1C3CCCC3)NC4=NC=C(C=C4)N5CCNCC5\u000a
p754
sba(i__main__
Molecule
p755
(dp756
g3
VTaxotere (Docetaxel)
p757
sg5
VDocetaxel
p758
sg7
g683
sg9
VCC1=C2C(C(=O)C3(C(CC4C(C3C(C(C2(C)C)(CC1OC(=O)C(C(C5=CC=CC=C5)NC(=O)OC(C)(C)C)O)O)OC(=O)C6=CC=CC=C6)(CO4)OC(=O)C)O)C)O\u000a
p759
sba(i__main__
Molecule
p760
(dp761
g3
VTykerb (lapatinib)
p762
sg5
Vlapatinib
p763
sg7
g683
sg9
VCS(=O)(=O)CCNCC1=CC=C(O1)C2=CC3=C(C=C2)N=CN=C3NC4=CC(=C(C=C4)OCC5=CC(=CC=C5)F)Cl\u000a
p764
sba(i__main__
Molecule
p765
(dp766
g3
VVerzenio (abemaciclib)
p767
sg5
Vabemaciclib
p768
sg7
g683
sg9
VCCN1CCN(CC1)CC2=CN=C(C=C2)NC3=NC=C(C(=N3)C4=CC5=C(C(=C4)F)N=C(N5C(C)C)C)F\u000a
p769
sba(i__main__
Molecule
p770
(dp771
g3
VXeloda
p772
sg5
VXelod
p773
sg7
g683
sg9
VCCCCCOC(=O)NC1=NC(=O)N(C=C1F)C2C(C(C(O2)C)O)O\u000a
p774
sba(i__main__
Molecule
p775
(dp776
g3
VNerlynx (neratinib)
p777
sg5
Vneratinib
p778
sg7
VBreast Cancer - HER2 Positive
p779
sg9
VCCOC1=C(C=C2C(=C1)N=CC(=C2NC3=CC(=C(C=C3)OCC4=CC=CC=N4)Cl)C#N)NC(=O)C=CCN(C)C\u000a
p780
sba(i__main__
Molecule
p781
(dp782
g3
VAugmentin (amoxicillin/clavulanate)
p783
sg5
Vamoxicillin/clavulanate
p784
sg7
VBronchitis
p785
sg9
VCC1(C(N2C(S1)C(C2=O)NC(=O)C(C3=CC=C(C=C3)O)N)C(=O)O)C.C1C2N(C1=O)C(C(=CCO)O2)C(=O)[O-].[K+]\u000a
p786
sba(i__main__
Molecule
p787
(dp788
g3
VAvelox I.V. (moxifloxacin hydrochloride)
p789
sg5
Vmoxifloxacin hydrochloride
p790
sg7
g785
sg9
VCOC1=C2C(=CC(=C1N3CC4CCCNC4C3)F)C(=O)C(=CN2C5CC5)C(=O)O.Cl\u000a
p791
sba(i__main__
Molecule
p792
(dp793
g3
VCeftin (cefuroxime axetil)
p794
sg5
Vcefuroxime axetil
p795
sg7
g785
sg9
VCC(OC(=O)C)OC(=O)C1=C(CSC2N1C(=O)C2NC(=O)C(=NOC)C3=CC=CO3)COC(=O)N\u000a
p796
sba(i__main__
Molecule
p797
(dp798
g3
VDermagraft-TC
p799
sg5
VDermagraft-T
p800
sg7
VBurns and Burn Infections
p801
sg9
VC1=CC=C2C(=C1)C=CC(=C2O)NN=C3C4=C(C=C(C=C4)[N+](=O)[O-])C(=CC3=O)S(=O)(=O)[O-].[Na+]\u000a
p802
sba(i__main__
Molecule
p803
(dp804
g3
VSulfamylon
p805
sg5
VSulfamylo
p806
sg7
g801
sg9
VCOC(=O)CNS(=O)(=O)C1=C(SC=C1)C(=O)OC\u000a
p807
sba(i__main__
Molecule
p808
(dp809
g3
VLazanda (fentanyl citrate) nasal spray
p810
sg5
Vfentanyl citrate
p811
sg7
VCancer Pain
p812
sg9
VCCC(=O)N(C1CCN(CC1)CCC2=CC=CC=C2)C3=CC=CC=C3.C(C(=O)O)C(CC(=O)O)(C(=O)O)O\u000a
p813
sba(i__main__
Molecule
p814
(dp815
g3
VOravig (miconazole)
p816
sg5
Vmiconazole
p817
sg7
VCandidemia/Candidiasis
p818
sg9
VC1=CC(=C(C=C1Cl)Cl)COC(CN2C=CN=C2)C3=C(C=C(C=C3)Cl)Cl\u000a
p819
sba(i__main__
Molecule
p820
(dp821
g3
VZontivity (vorapaxar)
p822
sg5
Vvorapaxar
p823
sg7
VCardiac Ischemia
p824
sg9
VCCOC(=O)NC1CCC2C(C1)CC3C(C2C=CC4=NC=C(C=C4)C5=CC(=CC=C5)F)C(OC3=O)C\u000a
p825
sba(i__main__
Molecule
p826
(dp827
g3
VKynamro (mipomersen sodium)
p828
sg5
Vmipomersen sodium
p829
sg7
VCardiovascular Abnormalities
p830
sg9
VCC1=CN(C(=O)NC1=O)C2CC(C(O2)COP(=O)(O)SC3CC(OC3COP(=O)(O)SC4CC(OC4COP(=O)(O)SC5CC(OC5COP(=O)(O)SC6CC(OC6COP(=O)(O)SC7CC(OC7COP(=O)(O)SC8CC(OC8COP(=O)(O)SC9CC(OC9COP(=O)(O)SC1C(OC(C1OCCOC)N1C=C(C(=NC1=O)N)C)COP(=O)(O)SC1C(OC(C1OCCOC)N1C=C(C(=O)NC1=O)C)COP(=O)(O)SC1C(OC(C1OCCOC)N1C=C(C(=NC1=O)N)C)COP(=O)(O)SC1C(OC(C1OCCOC)N1C=C(C(=NC1=O)N)C)COP(=O)(O)SC1C(OC(C1OCCOC)N1C=NC2=C1N=C(NC2=O)N)CO)N1C=NC2=C1N=CN=C2N)N1C=NC2=C1N=C(NC2=O)N)N1C=C(C(=O)NC1=O)C)N1C=C(C(=NC1=O)N)C)N1C=C(C(=O)NC1=O)C)N1C=NC2=C1N=C(NC2=O)N)N1C=C(C(=NC1=O)N)C)SP(=O)(O)OCC1C(CC(O1)N1C=C(C(=O)NC1=O)C)SP(=O)(O)OCC1C(CC(O1)N1C=C(C(=NC1=O)N)C)SP(=O)(O)OCC1C(C(C(O1)N1C=NC2=C1N=C(NC2=O)N)OCCOC)SP(=O)(O)OCC1C(C(C(O1)N1C=C(C(=NC1=O)N)C)OCCOC)SP(=O)(O)OCC1C(C(C(O1)N1C=NC2=C1N=CN=C2N)OCCOC)SP(=O)(O)OCC1C(C(C(O1)N1C=C(C(=NC1=O)N)C)OCCOC)SP(=O)(O)OCC1C(C(C(O1)N1C=C(C(=NC1=O)N)C)OCCOC)O\u000a
p831
sba(i__main__
Molecule
p832
(dp833
g3
VVarubi (rolapitant)
p834
sg5
Vrolapitant
p835
sg7
VChemotherapy
p836
sg9
VCC(C1=CC(=CC(=C1)C(F)(F)F)C(F)(F)F)OCC2(CCC3(CCC(=O)N3)CN2)C4=CC=CC=C4\u000a
p837
sba(i__main__
Molecule
p838
(dp839
g3
VVariZIG, Varicella Zoster Immune Globulin (Human)
p840
sg5
VHuman
p841
sg7
VChickenpox (Varicella Zoster Infection)
p842
sg9
VCCC(C)C1C(=O)NCC(=O)NC(C(=O)NC(C(=O)NC(C(=O)NCC(=O)NC(C(=O)NCC(=O)NC(CSSCC(C(=O)NC(C(=O)NCC(=O)NCC(=O)NC(C(=O)NC(C(=O)NC(C(=O)NC(C(=O)N1)CCCNC(=N)N)CC(=O)O)CCSC)CCCNC(=N)N)CC2=CC=CC=C2)NC(=O)C(CO)NC(=O)C(CO)NC(=O)C(CCCNC(=N)N)NC(=O)C(CCCNC(=N)N)NC(=O)C(CC(C)C)NC(=O)C(CO)N)C(=O)NC(CC(=O)N)C(=O)NC(CO)C(=O)NC(CC3=CC=CC=C3)C(=O)NC(CCCNC(=N)N)C(=O)NC(CC4=CC=C(C=C4)O)C(=O)O)CC(C)C)CO)CCC(=O)N)C\u000a
p843
sba(i__main__
Molecule
p844
(dp845
g3
VBiaxin XL (clarithromycin extended-release tablets)
p846
sg5
Vclarithromycin extended-release tablets
p847
sg7
VChronic Bronchitis
p848
sg9
VCCC1C(C(C(C(=O)C(CC(C(C(C(C(C(=O)O1)C)OC2CC(C(C(O2)C)O)(C)OC)C)OC3C(C(CC(O3)C)N(C)C)O)(C)OC)C)C)O)(C)O\u000a
p849
sba(i__main__
Molecule
p850
(dp851
g3
VCedax (ceftibuten)
p852
sg5
Vceftibuten
p853
sg7
g848
sg9
VC1C=C(N2C(S1)C(C2=O)NC(=O)C(=CCC(=O)O)C3=CSC(=N3)N)C(=O)O\u000a
p854
sba(i__main__
Molecule
p855
(dp856
g3
VRaxar (grepafloxacin)
p857
sg5
Vgrepafloxacin
p858
sg7
g848
sg9
VCC1CN(CCN1)C2=C(C(=C3C(=C2)N(C=C(C3=O)C(=O)O)C4CC4)C)F\u000a
p859
sba(i__main__
Molecule
p860
(dp861
g3
VZagam (sparfloxacin) tablets
p862
sg5
Vsparfloxacin
p863
sg7
g848
sg9
VCC1CN(CC(N1)C)C2=C(C3=C(C(=C2F)N)C(=O)C(=CN3C4CC4)C(=O)O)F\u000a
p864
sba(i__main__
Molecule
p865
(dp866
g3
VViberzi (eluxadoline)
p867
sg5
Veluxadoline
p868
sg7
VChronic Diarrhea
p869
sg9
VCC1=CC(=CC(=C1CC(C(=O)N(CC2=CC(=C(C=C2)OC)C(=O)O)C(C)C3=NC=C(N3)C4=CC=CC=C4)N)C)C(=O)N\u000a
p870
sba(i__main__
Molecule
p871
(dp872
g3
VXermelo (telotristat ethyl)
p873
sg5
Vtelotristat ethyl
p874
sg7
g869
sg9
VCCOC(=O)C(CC1=CC=C(C=C1)C2=CC(=NC(=N2)N)OC(C3=C(C=C(C=C3)Cl)N4C=CC(=N4)C)C(F)(F)F)N\u000a
p875
sba(i__main__
Molecule
p876
(dp877
g3
VXifaxan (rifaximin)
p878
sg5
Vrifaximin
p879
sg7
g869
sg9
VCC1C=CC=C(C(=O)NC2=C(C3=C(C4=C(C(=C3O)C)OC(C4=O)(OC=CC(C(C(C(C(C(C1O)C)O)C)OC(=O)C)C)OC)C)C5=C2N6C=CC(=CC6=N5)C)O)C\u000a
p880
sba(i__main__
Molecule
p881
(dp882
g3
VImbruvica (ibrutinib)
p883
sg5
Vibrutinib
p884
sg7
VChronic Lymphocytic Leukemia
p885
sg9
VC=CC(=O)N1CCCC(C1)N2C3=C(C(=N2)C4=CC=C(C=C4)OC5=CC=CC=C5)C(=NC=N3)N\u000a
p886
sba(i__main__
Molecule
p887
(dp888
g3
VImbruvica (ibrutinib)
p889
sg5
Vibrutinib
p890
sg7
g885
sg9
VC=CC(=O)N1CCCC(C1)N2C3=C(C(=N2)C4=CC=C(C=C4)OC5=CC=CC=C5)C(=NC=N3)N\u000a
p891
sba(i__main__
Molecule
p892
(dp893
g3
VTreanda (bendamustine hydrochloride)
p894
sg5
Vbendamustine hydrochloride
p895
sg7
g885
sg9
VCN1C2=C(C=C(C=C2)N(CCCl)CCCl)N=C1CCCC(=O)O.Cl\u000a
p896
sba(i__main__
Molecule
p897
(dp898
g3
VVenclexta (venetoclax)
p899
sg5
Vvenetoclax
p900
sg7
g885
sg9
VCC1(CCC(=C(C1)C2=CC=C(C=C2)Cl)CN3CCN(CC3)C4=CC(=C(C=C4)C(=O)NS(=O)(=O)C5=CC(=C(C=C5)NCC6CCOCC6)[N+](=O)[O-])OC7=CN=C8C(=C7)C=CN8)C\u000a
p901
sba(i__main__
Molecule
p902
(dp903
g3
VBosulif (bosutinib)
p904
sg5
Vbosutinib
p905
sg7
VChronic Myeloid Leukemia
p906
sg9
VCN1CCN(CC1)CCCOC2=C(C=C3C(=C2)N=CC(=C3NC4=CC(=C(C=C4Cl)Cl)OC)C#N)OC\u000a
p907
sba(i__main__
Molecule
p908
(dp909
g3
VGleevec (imatinib mesylate)
p910
sg5
Vimatinib mesylate
p911
sg7
g906
sg9
VCC1=C(C=C(C=C1)NC(=O)C2=CC=C(C=C2)CN3CCN(CC3)C)NC4=NC=CC(=N4)C5=CN=CC=C5.CS(=O)(=O)O\u000a
p912
sba(i__main__
Molecule
p913
(dp914
g3
VIclusig (ponatinib)
p915
sg5
Vponatinib
p916
sg7
g906
sg9
VCC1=C(C=C(C=C1)C(=O)NC2=CC(=C(C=C2)CN3CCN(CC3)C)C(F)(F)F)C#CC4=CN=C5N4N=CC=C5\u000a
p917
sba(i__main__
Molecule
p918
(dp919
g3
VSprycel (dasatinib)
p920
sg5
Vdasatinib
p921
sg7
g906
sg9
VCC1=C(C(=CC=C1)Cl)NC(=O)C2=CN=C(S2)NC3=NC(=NC(=C3)N4CCN(CC4)CCO)C\u000a
p922
sba(i__main__
Molecule
p923
(dp924
g3
VSynribo (omacetaxine mepesuccinate)
p925
sg5
Vomacetaxine mepesuccinate
p926
sg7
g906
sg9
VCC(C)(CCCC(CC(=O)OC)(C(=O)OC1C2C3=CC4=C(C=C3CCN5C2(CCC5)C=C1OC)OCO4)O)O\u000a
p927
sba(i__main__
Molecule
p928
(dp929
g3
VAnexsia
p930
sg5
VAnexsi
p931
sg7
VChronic Pain
p932
sg9
VCC(=O)NC1=CC=C(C=C1)O\u000a
p933
sba(i__main__
Molecule
p934
(dp935
g3
VAvinza (morphine sulfate)
p936
sg5
Vmorphine sulfate
p937
sg7
g932
sg9
VCN1CCC23C4C1CC5=C2C(=C(C=C5)O)OC3C(C=C4)O\u000a
p938
sba(i__main__
Molecule
p939
(dp940
g3
VBelbuca (buprenorphine) 
p941
sg5
Vbuprenorphine
p942
sg7
g932
sg9
VCC(C)(C)C(C)(C1CC23CCC1(C4C25CCN(C3CC6=C5C(=C(C=C6)O)O4)CC7CC7)OC)O\u000a
p943
sba(i__main__
Molecule
p944
(dp945
g3
VButrans (buprenorphine) Transdermal System
p946
sg5
Vbuprenorphine
p947
sg7
g932
sg9
VCC(C)(C)C(C)(C1CC23CCC1(C4C25CCN(C3CC6=C5C(=C(C=C6)O)O4)CC7CC7)OC)O\u000a
p948
sba(i__main__
Molecule
p949
(dp950
g3
VMovantik (naloxegol)
p951
sg5
Vnaloxegol
p952
sg7
g932
sg9
VCOCCOCCOCCOCCOCCOCCOCCOC1CCC2(C3CC4=C5C2(C1OC5=C(C=C4)O)CCN3CC=C)O\u000a
p953
sba(i__main__
Molecule
p954
(dp955
g3
VVivlodex (meloxicam) 
p956
sg5
Vmeloxicam
p957
sg7
g932
sg9
VCC1=CN=C(S1)NC(=O)C2=C(C3=CC=CC=C3S(=O)(=O)N2C)O\u000a
p958
sba(i__main__
Molecule
p959
(dp960
g3
VDificid (fidaxomicin)
p961
sg5
Vfidaxomicin
p962
sg7
VClostridium Difficile-Associated Diarrhea
p963
sg9
VCCC1C=C(C(CC=CC=C(C(=O)OC(CC=C(C=C(C1OC2C(C(C(C(O2)(C)C)OC(=O)C(C)C)O)O)C)C)C(C)O)COC3C(C(C(C(O3)C)OC(=O)C4=C(C(=C(C(=C4O)Cl)O)Cl)CC)O)OC)O)C\u000a
p964
sba(i__main__
Molecule
p965
(dp966
g3
VSitavig (acyclovir) buccal tablets
p967
sg5
Vacyclovir
p968
sg7
VCold Sores (Herpes Labialis Infections)
p969
sg9
VC1=NC2=C(N1COCCO)NC(=NC2=O)N\u000a
p970
sba(i__main__
Molecule
p971
(dp972
g3
VAvastin (bevacizumab)
p973
sg5
Vbevacizumab
p974
sg7
VColorectal Cancer
p975
sg9
V[Li+].CCN(CC)CCNC(=O)C1=CC(=C(C=C1)C(=O)[O-])I\u000a
p976
sba(i__main__
Molecule
p977
(dp978
g3
VCampostar
p979
sg5
VCamposta
p980
sg7
g975
sg9
VCC(C)C(C)C(C(C(C)C1CCC2C1(CCC3C2CCC4=CC(=O)CCC34C)C)O)O\u000a
p981
sba(i__main__
Molecule
p982
(dp983
g3
VErbitux (cetuximab)
p984
sg5
Vcetuximab
p985
sg7
g975
sg9
VCCC1=C2C=C(C=CC2=NC3=C1CN4C3=CC5=C(C4=O)COC(=O)C5(CC)O)OC(=O)N6CCC(CC6)N7CCCCC7.C1C(N(C2=C(N1)NC(=NC2=O)N)C=O)CNC3=CC=C(C=C3)C(=O)NC(CCC(=O)O)C(=O)O.C1=C(C(=O)NC(=O)N1)F\u000a
p986
sba(i__main__
Molecule
p987
(dp988
g3
VStivarga (regorafenib)
p989
sg5
Vregorafenib
p990
sg7
g975
sg9
VCNC(=O)C1=NC=CC(=C1)OC2=CC(=C(C=C2)NC(=O)NC3=CC(=C(C=C3)Cl)C(F)(F)F)F\u000a
p991
sba(i__main__
Molecule
p992
(dp993
g3
VAtrovent (ipratropium bromide)
p994
sg5
Vipratropium bromide
p995
sg7
VCommon Cold
p996
sg9
VCC(C)[N+]1(C2CCC1CC(C2)OC(=O)C(CO)C3=CC=CC=C3)C.[Br-]\u000a
p997
sba(i__main__
Molecule
p998
(dp999
g3
VTavist (clemastine fumarate)
p1000
sg5
Vclemastine fumarate
p1001
sg7
g996
sg9
VCC(C1=CC=CC=C1)(C2=CC=C(C=C2)Cl)OCCC3CCCN3C.C(=CC(=O)O)C(=O)O\u000a
p1002
sba(i__main__
Molecule
p1003
(dp1004
g3
VTavist (clemastine fumarate)
p1005
sg5
Vclemastine fumarate
p1006
sg7
g996
sg9
VCC(C1=CC=CC=C1)(C2=CC=C(C=C2)Cl)OCCC3CCCN3C.C(=CC(=O)O)C(=O)O\u000a
p1007
sba(i__main__
Molecule
p1008
(dp1009
g3
VLinzess (linaclotide)
p1010
sg5
Vlinaclotide
p1011
sg7
VConstipation
p1012
sg9
VCC1C(=O)NC2CSSCC3C(=O)NC(C(=O)NC(C(=O)NC(CSSCC(NC(=O)CNC(=O)C(NC2=O)C(C)O)C(=O)NC(CC4=CC=C(C=C4)O)C(=O)O)C(=O)NC(CSSCC(C(=O)N3)N)C(=O)NC(C(=O)N5CCCC5C(=O)N1)CC(=O)N)CC6=CC=C(C=C6)O)CCC(=O)O\u000a
p1013
sba(i__main__
Molecule
p1014
(dp1015
g3
VMovantik (naloxegol)
p1016
sg5
Vnaloxegol
p1017
sg7
g1012
sg9
VCOCCOCCOCCOCCOCCOCCOCCOC1CCC2(C3CC4=C5C2(C1OC5=C(C=C4)O)CCN3CC=C)O\u000a
p1018
sba(i__main__
Molecule
p1019
(dp1020
g3
VSymproic (naldemedine)
p1021
sg5
Vnaldemedine
p1022
sg7
g1012
sg9
VCC(C)(C1=NC(=NO1)C2=CC=CC=C2)NC(=O)C3=C(C4C56CCN(C(C5(C3)O)CC7=C6C(=C(C=C7)O)O4)CC8CC8)O\u000a
p1023
sba(i__main__
Molecule
p1024
(dp1025
g3
Vella (ulipristal acetate)
p1026
sg5
Vulipristal acetate
p1027
sg7
VContraception
p1028
sg9
VCC(=O)C1(CCC2C1(CC(C3=C4CCC(=O)C=C4CCC23)C5=CC=C(C=C5)N(C)C)C)OC(=O)C\u000a
p1029
sba(i__main__
Molecule
p1030
(dp1031
g3
VNuvaRing
p1032
sg5
VNuvaRin
p1033
sg7
g1028
sg9
VCCC12CC(=C)C3C(C1CCC2(C#C)O)CCC4=CC(=O)CCC34.CC12CCC3C(C1CCC2(C#C)O)CCC4=C3C=CC(=C4)O\u000a
p1034
sba(i__main__
Molecule
p1035
(dp1036
g3
VAdvair (fluticasone propionate and salmeterol)
p1037
sg5
Vfluticasone propionate and salmeterol
p1038
sg7
VCOPD (Chronic Obstructive Pulmonary Disease)
p1039
sg9
VC1=CC=C(C=C1)CCCCOCCCCCCNCC(C2=CC(=C(C=C2)O)CO)O\u000a
p1040
sba(i__main__
Molecule
p1041
(dp1042
g3
VDaliresp (roflumilast)
p1043
sg5
Vroflumilast
p1044
sg7
g1039
sg9
VC1CC1COC2=C(C=CC(=C2)C(=O)NC3=C(C=NC=C3Cl)Cl)OC(F)F\u000a
p1045
sba(i__main__
Molecule
p1046
(dp1047
g3
VSpiriva HandiHaler (tiotropium bromide)
p1048
sg5
Vtiotropium bromide
p1049
sg7
g1039
sg9
VC[N+]1(C2CC(CC1C3C2O3)OC(=O)C(C4=CC=CS4)(C5=CC=CS5)O)C.O.[Br-]\u000a
p1050
sba(i__main__
Molecule
p1051
(dp1052
g3
VStiolto Respimat (tiotropium bromide and olodaterol) 
p1053
sg5
Vtiotropium bromide and olodaterol
p1054
sg7
g1039
sg9
VC[N+]1(C2CC(CC1C3C2O3)OC(=O)C(C4=CC=CS4)(C5=CC=CS5)O)C.[Br-]\u000a
p1055
sba(i__main__
Molecule
p1056
(dp1057
g3
VStriverdi Respimat (olodaterol)
p1058
sg5
Volodaterol
p1059
sg7
g1039
sg9
VCC(C)(CC1=CC=C(C=C1)OC)NCC(C2=CC(=CC3=C2OCC(=O)N3)O)O\u000a
p1060
sba(i__main__
Molecule
p1061
(dp1062
g3
VKengreal (cangrelor) 
p1063
sg5
Vcangrelor
p1064
sg7
VCoronary Artery Disease
p1065
sg9
VCSCCNC1=NC(=NC2=C1N=CN2C3C(C(C(O3)COP(=O)(O)OP(=O)(C(P(=O)(O)O)(Cl)Cl)O)O)O)SCCC(F)(F)F\u000a
p1066
sba(i__main__
Molecule
p1067
(dp1068
g3
VEntocort EC (budesonide)
p1069
sg5
Vbudesonide
p1070
sg7
VCrohn's Disease
p1071
sg9
VCCCC1OC2CC3C4CCC5=CC(=O)C=CC5(C4C(CC3(C2(O1)C(=O)CO)C)O)C\u000a
p1072
sba(i__main__
Molecule
p1073
(dp1074
g3
VKorlym (mifepristone)
p1075
sg5
Vmifepristone
p1076
sg7
VCushing's Disease
p1077
sg9
VCC#CC1(CCC2C1(CC(C3=C4CCC(=O)C=C4CCC23)C5=CC=C(C=C5)N(C)C)C)O\u000a
p1078
sba(i__main__
Molecule
p1079
(dp1080
g3
VSignifor (pasireotide diaspartate)
p1081
sg5
Vpasireotide diaspartate
p1082
sg7
g1077
sg9
VC1C(CN2C1C(=O)NC(C(=O)NC(C(=O)NC(C(=O)NC(C(=O)NC(C2=O)CC3=CC=CC=C3)CC4=CC=C(C=C4)OCC5=CC=CC=C5)CCCCN)CC6=CNC7=CC=CC=C76)C8=CC=CC=C8)OC(=O)NCCN.C(C(C(=O)O)N)C(=O)O.C(C(C(=O)O)N)C(=O)O\u000a
p1083
sba(i__main__
Molecule
p1084
(dp1085
g3
VIstodax (romidepsin)
p1086
sg5
Vromidepsin
p1087
sg7
VCutaneous T-Cell Lymphoma
p1088
sg9
VCC=C1C(=O)NC(C(=O)OC2CC(=O)NC(C(=O)NC(CSSCCC=C2)C(=O)N1)C(C)C)C(C)C\u000a
p1089
sba(i__main__
Molecule
p1090
(dp1091
g3
VValchlor (mechlorethamine) gel
p1092
sg5
Vmechlorethamine
p1093
sg7
g1088
sg9
VCN(CCCl)CCCl\u000a
p1094
sba(i__main__
Molecule
p1095
(dp1096
g3
VKalydeco (ivacaftor)
p1097
sg5
Vivacaftor
p1098
sg7
VCystic Fibrosis
p1099
sg9
VCC(C)(C)C1=CC(=C(C=C1NC(=O)C2=CNC3=CC=CC=C3C2=O)O)C(C)(C)C\u000a
p1100
sba(i__main__
Molecule
p1101
(dp1102
g3
VPulmozyme (dornase alfa)
p1103
sg5
Vdornase alfa
p1104
sg7
g1099
sg9
VC1=CC(=CC(=C1)Cl)C(F)(F)F\u000a
p1105
sba(i__main__
Molecule
p1106
(dp1107
g3
VPulmozyme (dornase alfa)
p1108
sg5
Vdornase alfa
p1109
sg7
g1099
sg9
VC1=CC(=CC(=C1)Cl)C(F)(F)F\u000a
p1110
sba(i__main__
Molecule
p1111
(dp1112
g3
VTobi
p1113
sg5
VTob
p1114
sg7
g1099
sg9
VC1C(C(C(C(C1N)OC2C(C(C(C(O2)CSCCOCCSSCCOCCSCC3C(C(C(C(O3)OC4C(CC(C(C4O)OC5C(CC(C(O5)CN)O)N)N)N)O)N)O)O)N)O)O)OC6C(CC(C(O6)CN)O)N)N\u000a
p1115
sba(i__main__
Molecule
p1116
(dp1117
g3
VOral Cytovene
p1118
sg5
VOral Cytoven
p1119
sg7
VCytomegalovirus (CMV) Retinitis
p1120
sg9
VCC12CCC3C(C1CCC2(C)O)CCC4=C(C(=O)C=CC34C)Cl\u000a
p1121
sba(i__main__
Molecule
p1122
(dp1123
g3
VVistide (cidofovir)
p1124
sg5
Vcidofovir
p1125
sg7
g1120
sg9
VC1=CN(C(=O)N=C1N)CC(CO)OCP(=O)(O)O\u000a
p1126
sba(i__main__
Molecule
p1127
(dp1128
g3
VVitrasert Implant
p1129
sg5
VVitrasert Implan
p1130
sg7
g1120
sg9
VC1=NC2=C(N1COC(CO)CO)NC(=NC2=O)N\u000a
p1131
sba(i__main__
Molecule
p1132
(dp1133
g3
VPrevymis (letermovir) 
p1134
sg5
Vletermovir
p1135
sg7
VCytomegalovirus Infections
p1136
sg9
VCOC1=C(C=C(C=C1)C(F)(F)F)N2C(C3=C(C(=CC=C3)F)N=C2N4CCN(CC4)C5=CC(=CC=C5)OC)CC(=O)O\u000a
p1137
sba(i__main__
Molecule
p1138
(dp1139
g3
VSavaysa (edoxaban)
p1140
sg5
Vedoxaban
p1141
sg7
VDeep Vein Thrombosis
p1142
sg9
VCN1CCC2=C(C1)SC(=N2)C(=O)NC3CC(CCC3NC(=O)C(=O)NC4=NC=C(C=C4)Cl)C(=O)N(C)C\u000a
p1143
sba(i__main__
Molecule
p1144
(dp1145
g3
VBrintellix (vortioxetine)
p1146
sg5
Vvortioxetine
p1147
sg7
VDepression
p1148
sg9
VCC1=CC(=C(C=C1)SC2=CC=CC=C2N3CCNCC3)C\u000a
p1149
sba(i__main__
Molecule
p1150
(dp1151
g3
VCelexa
p1152
sg5
VCelex
p1153
sg7
g1148
sg9
VCN(C)CCCC1(C2=C(CO1)C=C(C=C2)C#N)C3=CC=C(C=C3)F.Br\u000a
p1154
sba(i__main__
Molecule
p1155
(dp1156
g3
VClomipramine hydrochloride
p1157
sg5
VClomipramine hydrochlorid
p1158
sg7
g1148
sg9
VCN(C)CCCN1C2=CC=CC=C2CCC3=C1C=C(C=C3)Cl.Cl\u000a
p1159
sba(i__main__
Molecule
p1160
(dp1161
g3
VCymbalta (duloxetine)
p1162
sg5
Vduloxetine
p1163
sg7
g1148
sg9
VCNCCC(C1=CC=CS1)OC2=CC=CC3=CC=CC=C32.Cl\u000a
p1164
sba(i__main__
Molecule
p1165
(dp1166
g3
VFetzima (levomilnacipran)
p1167
sg5
Vlevomilnacipran
p1168
sg7
g1148
sg9
VCCN(CC)C(=O)C1(CC1CN)C2=CC=CC=C2\u000a
p1169
sba(i__main__
Molecule
p1170
(dp1171
g3
VLithobid (Lithium Carbonate)
p1172
sg5
VLithium Carbonate
p1173
sg7
g1148
sg9
V[Li+].[Li+].C(=O)([O-])[O-]\u000a
p1174
sba(i__main__
Molecule
p1175
(dp1176
g3
VPaxil CR (paroxetine hydrochloride)
p1177
sg5
Vparoxetine hydrochloride
p1178
sg7
g1148
sg9
VC1CNCC(C1C2=CC=C(C=C2)F)COC3=CC4=C(C=C3)OCO4.Cl\u000a
p1179
sba(i__main__
Molecule
p1180
(dp1181
g3
VProzac Weekly (fluoxetine HCl)
p1182
sg5
Vfluoxetine HCl
p1183
sg7
g1148
sg9
VCNCCC(C1=CC=CC=C1)OC2=CC=C(C=C2)C(F)(F)F.Cl\u000a
p1184
sba(i__main__
Molecule
p1185
(dp1186
g3
VRemeron (Mirtazapine)
p1187
sg5
VMirtazapine
p1188
sg7
g1148
sg9
VCN1CCN2C(C1)C3=CC=CC=C3CC4=C2N=CC=C4\u000a
p1189
sba(i__main__
Molecule
p1190
(dp1191
g3
VRemeron SolTab (mirtazapine)
p1192
sg5
Vmirtazapine
p1193
sg7
g1148
sg9
VCN1CCN2C(C1)C3=CC=CC=C3CC4=C2N=CC=C4\u000a
p1194
sba(i__main__
Molecule
p1195
(dp1196
g3
VRexulti (brexpiprazole)
p1197
sg5
Vbrexpiprazole
p1198
sg7
g1148
sg9
VC1CN(CCN1CCCCOC2=CC3=C(C=C2)C=CC(=O)N3)C4=C5C=CSC5=CC=C4\u000a
p1199
sba(i__main__
Molecule
p1200
(dp1201
g3
VTrazadone 150mg
p1202
sg5
VTrazadone 150m
p1203
sg7
g1148
sg9
VC1CN(CCN1CCCN2C(=O)N3C=CC=CC3=N2)C4=CC(=CC=C4)Cl.Cl\u000a
p1204
sba(i__main__
Molecule
p1205
(dp1206
g3
VLexapro (escitalopram oxalate)
p1207
sg5
Vescitalopram oxalate
p1208
sg7
VDepression (Major/Severe)
p1209
sg9
VCN(C)CCCC1(C2=C(CO1)C=C(C=C2)C#N)C3=CC=C(C=C3)F.C(=O)(C(=O)O)O\u000a
p1210
sba(i__main__
Molecule
p1211
(dp1212
g3
VOleptro (trazodone hydrochloride)
p1213
sg5
Vtrazodone hydrochloride
p1214
sg7
g1209
sg9
VC1CN(CCN1CCCN2C(=O)N3C=CC=CC3=N2)C4=CC(=CC=C4)Cl.Cl\u000a
p1215
sba(i__main__
Molecule
p1216
(dp1217
g3
VRexulti (brexpiprazole)
p1218
sg5
Vbrexpiprazole
p1219
sg7
g1209
sg9
VC1CN(CCN1CCCCOC2=CC3=C(C=C2)C=CC(=O)N3)C4=C5C=CSC5=CC=C4\u000a
p1220
sba(i__main__
Molecule
p1221
(dp1222
g3
VViibryd (vilazodone hydrochloride)
p1223
sg5
Vvilazodone hydrochloride
p1224
sg7
g1209
sg9
VC1CN(CCN1CCCCC2=CNC3=C2C=C(C=C3)C#N)C4=CC5=C(C=C4)OC(=C5)C(=O)N.Cl\u000a
p1225
sba(i__main__
Molecule
p1226
(dp1227
g3
VAfrezza (insulin human) Inhalation Powder
p1228
sg5
Vinsulin human
p1229
sg7
VDiabetes Mellitus Types I and II
p1230
sg9
VCCC(C)C(C(=O)NC(C(C)C)C(=O)NC(CCC(=O)O)C(=O)NC(CCC(=O)N)C(=O)NC(CS)C(=O)NC(CS)C(=O)NC(C(C)O)C(=O)NC(CO)C(=O)NC(C(C)CC)C(=O)NC(CS)C(=O)NC(CO)C(=O)NC(CC(C)C)C(=O)NC(CC1=CC=C(C=C1)O)C(=O)NC(CCC(=O)N)C(=O)NC(CC(C)C)C(=O)NC(CCC(=O)O)C(=O)NC(CC(=O)N)C(=O)NC(CC2=CC=C(C=C2)O)C(=O)NC(CS)C(=O)NC(CC(=O)N)C(=O)O)NC(=O)CN.CC(C)CC(C(=O)NC(CC1=CC=C(C=C1)O)C(=O)NC(CC(C)C)C(=O)NC(C(C)C)C(=O)NC(CS)C(=O)NCC(=O)NC(CCC(=O)O)C(=O)NC(CCCNC(=N)N)C(=O)NCC(=O)NC(CC2=CC=CC=C2)C(=O)NC(CC3=CC=CC=C3)C(=O)NC(CC4=CC=C(C=C4)O)C(=O)NC(C(C)O)C(=O)NC(CC(=O)O)C(=O)NC(CCCCN)C(=O)NC(C(C)O)C(=O)O)NC(=O)C(C)NC(=O)C(CCC(=O)O)NC(=O)C(C(C)C)NC(=O)C(CC(C)C)NC(=O)C(CC5=CN=CN5)NC(=O)C(CO)NC(=O)CNC(=O)C(CS)NC(=O)C(CC(C)C)NC(=O)C(CC6=CN=CN6)NC(=O)C(CCC(=O)N)NC(=O)C(CC(=O)N)NC(=O)C(C(C)C)NC(=O)C(CC7=CC=CC=C7)N\u000a
p1231
sba(i__main__
Molecule
p1232
(dp1233
g3
VGlucagon
p1234
sg5
VGlucago
p1235
sg7
g1230
sg9
VCC(C)CC(C(=O)NC(CCSC)C(=O)NC(CC(=O)N)C(=O)NC(C(C)O)C(=O)O)NC(=O)C(CC1=CNC2=CC=CC=C21)NC(=O)C(CCC(=O)N)NC(=O)C(C(C)C)NC(=O)C(CC3=CC=CC=C3)NC(=O)C(CC(=O)O)NC(=O)C(CCC(=O)N)NC(=O)C(C)NC(=O)C(CCCNC(=N)N)NC(=O)C(CCCNC(=N)N)NC(=O)C(CO)NC(=O)C(CC(=O)O)NC(=O)C(CC(C)C)NC(=O)C(CC4=CC=C(C=C4)O)NC(=O)C(CCCCN)NC(=O)C(CO)NC(=O)C(CC5=CC=C(C=C5)O)NC(=O)C(CC(=O)O)NC(=O)C(CO)NC(=O)C(C(C)O)NC(=O)C(CC6=CC=CC=C6)NC(=O)C(C(C)O)NC(=O)CNC(=O)C(CCC(=O)N)NC(=O)C(CO)NC(=O)C(CC7=CN=CN7)N\u000a
p1236
sba(i__main__
Molecule
p1237
(dp1238
g3
VHumalog (insulin lispro)
p1239
sg5
Vinsulin lispro
p1240
sg7
g1230
sg9
VCCC(C)C(C(=O)NC(C(C)C)C(=O)NC(CCC(=O)O)C(=O)NC(CCC(=O)N)C(=O)NC(CS)C(=O)NC(CS)C(=O)NC(C(C)O)C(=O)NC(CO)C(=O)NC(C(C)CC)C(=O)NC(CS)C(=O)NC(CO)C(=O)NC(CC(C)C)C(=O)NC(CC1=CC=C(C=C1)O)C(=O)NC(CCC(=O)N)C(=O)NC(CC(C)C)C(=O)NC(CCC(=O)O)C(=O)NC(CC(=O)N)C(=O)NC(CC2=CC=C(C=C2)O)C(=O)NC(CS)C(=O)NC(CC(=O)N)C(=O)O)NC(=O)CN.CC(C)CC(C(=O)NC(CC1=CC=C(C=C1)O)C(=O)NC(CC(C)C)C(=O)NC(C(C)C)C(=O)NC(CS)C(=O)NCC(=O)NC(CCC(=O)O)C(=O)NC(CCCNC(=N)N)C(=O)NCC(=O)NC(CC2=CC=CC=C2)C(=O)NC(CC3=CC=CC=C3)C(=O)NC(CC4=CC=C(C=C4)O)C(=O)NC(C(C)O)C(=O)NC(CCCCN)C(=O)N5CCCC5C(=O)NC(C(C)O)C(=O)O)NC(=O)C(C)NC(=O)C(CCC(=O)O)NC(=O)C(C(C)C)NC(=O)C(CC(C)C)NC(=O)C(CC6=CN=CN6)NC(=O)C(CO)NC(=O)CNC(=O)C(CS)NC(=O)C(CC(C)C)NC(=O)C(CC7=CN=CN7)NC(=O)C(CCC(=O)N)NC(=O)C(CC(=O)N)NC(=O)C(C(C)C)NC(=O)C(CC8=CC=CC=C8)N\u000a
p1241
sba(i__main__
Molecule
p1242
(dp1243
g3
VNovoLog (insulin aspart)
p1244
sg5
Vinsulin aspart
p1245
sg7
g1230
sg9
VCCC(C)C(C(=O)NC(C(C)C)C(=O)NC(CCC(=O)O)C(=O)NC(CCC(=O)N)C(=O)NC(CS)C(=O)NC(CS)C(=O)NC(C(C)O)C(=O)NC(CO)C(=O)NC(C(C)CC)C(=O)NC(CS)C(=O)NC(CO)C(=O)NC(CC(C)C)C(=O)NC(CC1=CC=C(C=C1)O)C(=O)NC(CCC(=O)N)C(=O)NC(CC(C)C)C(=O)NC(CCC(=O)O)C(=O)NC(CC(=O)N)C(=O)NC(CC2=CC=C(C=C2)O)C(=O)NC(CS)C(=O)NC(CC(=O)N)C(=O)O)NC(=O)CN.CC(C)CC(C(=O)NC(CC1=CC=C(C=C1)O)C(=O)NC(CC(C)C)C(=O)NC(C(C)C)C(=O)NC(CS)C(=O)NCC(=O)NC(CCC(=O)O)C(=O)NC(CCCNC(=N)N)C(=O)NCC(=O)NC(CC2=CC=CC=C2)C(=O)NC(CC3=CC=CC=C3)C(=O)NC(CC4=CC=C(C=C4)O)C(=O)NC(C(C)O)C(=O)NC(CC(=O)O)C(=O)NC(CCCCN)C(=O)NC(C(C)O)C(=O)O)NC(=O)C(C)NC(=O)C(CCC(=O)O)NC(=O)C(C(C)C)NC(=O)C(CC(C)C)NC(=O)C(CC5=CN=CN5)NC(=O)C(CO)NC(=O)CNC(=O)C(CS)NC(=O)C(CC(C)C)NC(=O)C(CC6=CN=CN6)NC(=O)C(CCC(=O)N)NC(=O)C(CC(=O)N)NC(=O)C(C(C)C)NC(=O)C(CC7=CC=CC=C7)N\u000a
p1246
sba(i__main__
Molecule
p1247
(dp1248
g3
VSymlin (pramlintide)
p1249
sg5
Vpramlintide
p1250
sg7
g1230
sg9
VCCC(C)C(C(=O)NC(CC(C)C)C(=O)N1CCCC1C(=O)N2CCCC2C(=O)NC(C(C)O)C(=O)NC(CC(=O)N)C(=O)NC(C(C)C)C(=O)NCC(=O)NC(CO)C(=O)NC(CC(=O)N)C(=O)NC(C(C)O)C(=O)NC(CC3=CC=C(C=C3)O)C(=O)N)NC(=O)C4CCCN4C(=O)CNC(=O)C(CC5=CC=CC=C5)NC(=O)C(CC(=O)N)NC(=O)C(CC(=O)N)NC(=O)C(CO)NC(=O)C(CO)NC(=O)C(CC6=CN=CN6)NC(=O)C(C(C)C)NC(=O)C(CC(C)C)NC(=O)C(CC7=CC=CC=C7)NC(=O)C(CC(=O)N)NC(=O)C(C)NC(=O)C(CC(C)C)NC(=O)C(CCCNC(=N)N)NC(=O)C(CCC(=O)N)NC(=O)C(C(C)O)NC(=O)C(C)NC(=O)C(CS)NC(=O)C(C(C)O)NC(=O)C(C)NC(=O)C(C(C)O)NC(=O)C(CC(=O)N)NC(=O)C(CS)NC(=O)C(CCCCN)N\u000a
p1251
sba(i__main__
Molecule
p1252
(dp1253
g3
VAmaryl (Glimepiride)
p1254
sg5
VGlimepiride
p1255
sg7
VDiabetes Mellitus, Type 2
p1256
sg9
VCCC1=C(CN(C1=O)C(=O)NCCC2=CC=C(C=C2)S(=O)(=O)NC(=O)NC3CCC(CC3)C)C\u000a
p1257
sba(i__main__
Molecule
p1258
(dp1259
g3
VByetta (exenatide)
p1260
sg5
Vexenatide
p1261
sg7
g1256
sg9
VCCC(C)C(C(=O)NC(CCC(=O)O)C(=O)NC(CC1=CNC2=CC=CC=C21)C(=O)NC(CC(C)C)C(=O)NC(CCCCN)C(=O)NC(CC(=O)N)C(=O)NCC(=O)NCC(=O)N3CCCC3C(=O)NC(CO)C(=O)NC(CO)C(=O)NCC(=O)NC(C)C(=O)N4CCCC4C(=O)N5CCCC5C(=O)N6CCCC6C(=O)NC(CO)C(=O)N)NC(=O)C(CC7=CC=CC=C7)NC(=O)C(CC(C)C)NC(=O)C(CCCNC(=N)N)NC(=O)C(C(C)C)NC(=O)C(C)NC(=O)C(CCC(=O)O)NC(=O)C(CCC(=O)O)NC(=O)C(CCC(=O)O)NC(=O)C(CCSC)NC(=O)C(CCC(=O)N)NC(=O)C(CCCCN)NC(=O)C(CO)NC(=O)C(CC(C)C)NC(=O)C(CC(=O)O)NC(=O)C(CO)NC(=O)C(C(C)O)NC(=O)C(CC8=CC=CC=C8)NC(=O)C(C(C)O)NC(=O)CNC(=O)C(CCC(=O)O)NC(=O)CNC(=O)C(CC9=CNC=N9)N\u000a
p1262
sba(i__main__
Molecule
p1263
(dp1264
g3
VFarxiga (dapagliflozin)
p1265
sg5
Vdapagliflozin
p1266
sg7
g1256
sg9
VCCOC1=CC=C(C=C1)CC2=C(C=CC(=C2)C3C(C(C(C(O3)CO)O)O)O)Cl\u000a
p1267
sba(i__main__
Molecule
p1268
(dp1269
g3
VGlyset (miglitol)
p1270
sg5
Vmiglitol
p1271
sg7
g1256
sg9
VC1C(C(C(C(N1CCO)CO)O)O)O\u000a
p1272
sba(i__main__
Molecule
p1273
(dp1274
g3
VInvokana (canagliflozin)
p1275
sg5
Vcanagliflozin
p1276
sg7
g1256
sg9
VCC1=C(C=C(C=C1)C2C(C(C(C(O2)CO)O)O)O)CC3=CC=C(S3)C4=CC=C(C=C4)F\u000a
p1277
sba(i__main__
Molecule
p1278
(dp1279
g3
VJanuvia (sitagliptin phosphate)
p1280
sg5
Vsitagliptin phosphate
p1281
sg7
g1256
sg9
VC1CN2C(=NN=C2C(F)(F)F)CN1C(=O)CC(CC3=CC(=C(C=C3F)F)F)N\u000a
p1282
sba(i__main__
Molecule
p1283
(dp1284
g3
VJardiance (empagliflozin) 
p1285
sg5
Vempagliflozin
p1286
sg7
g1256
sg9
VC1COCC1OC2=CC=C(C=C2)CC3=C(C=CC(=C3)C4C(C(C(C(O4)CO)O)O)O)Cl\u000a
p1287
sba(i__main__
Molecule
p1288
(dp1289
g3
VNesina (alogliptin)
p1290
sg5
Valogliptin
p1291
sg7
g1256
sg9
VCN1C(=O)C=C(N(C1=O)CC2=CC=CC=C2C#N)N3CCCC(C3)N\u000a
p1292
sba(i__main__
Molecule
p1293
(dp1294
g3
VOnglyza (saxagliptin)
p1295
sg5
Vsaxagliptin
p1296
sg7
g1256
sg9
VC1C2CC2N(C1C#N)C(=O)C(C34CC5CC(C3)CC(C5)(C4)O)N\u000a
p1297
sba(i__main__
Molecule
p1298
(dp1299
g3
VPrecose (acarbose)
p1300
sg5
Vacarbose
p1301
sg7
g1256
sg9
VCC1C(C(C(C(O1)OC2C(OC(C(C2O)O)OC3C(OC(C(C3O)O)O)CO)CO)O)O)NC4C=C(C(C(C4O)O)O)CO\u000a
p1302
sba(i__main__
Molecule
p1303
(dp1304
g3
VQtern (dapagliflozin and saxagliptin) 
p1305
sg5
Vdapagliflozin and saxagliptin
p1306
sg7
g1256
sg9
VCCOC1=CC=C(C=C1)CC2=C(C=CC(=C2)C3C(C(C(C(O3)CO)O)O)O)Cl.C1C2CC2N(C1C#N)C(=O)C(C34CC5CC(C3)CC(C5)(C4)O)N\u000a
p1307
sba(i__main__
Molecule
p1308
(dp1309
g3
VSteglatro (ertugliflozin)
p1310
sg5
Vertugliflozin
p1311
sg7
g1256
sg9
VCCOC1=CC=C(C=C1)CC2=C(C=CC(=C2)C34C(C(C(C(O3)(CO4)CO)O)O)O)Cl\u000a
p1312
sba(i__main__
Molecule
p1313
(dp1314
g3
VTradjenta (linagliptin)
p1315
sg5
Vlinagliptin
p1316
sg7
g1256
sg9
VCC#CCN1C2=C(N=C1N3CCCC(C3)N)N(C(=O)N(C2=O)CC4=NC5=CC=CC=C5C(=N4)C)C\u000a
p1317
sba(i__main__
Molecule
p1318
(dp1319
g3
VVictoza (liraglutide)
p1320
sg5
Vliraglutide
p1321
sg7
g1256
sg9
VCCCCCCCCCCCCCCCC(=O)NC(CCC(=O)NCCCCC(C(=O)NC(CCC(=O)O)C(=O)NC(CC1=CC=CC=C1)C(=O)NC(C(C)CC)C(=O)NC(C)C(=O)NC(CC2=CNC3=CC=CC=C32)C(=O)NC(CC(C)C)C(=O)NC(C(C)C)C(=O)NC(CCCNC(=N)N)C(=O)NCC(=O)NC(CCCNC(=N)N)C(=O)NCC(=O)O)NC(=O)C(C)NC(=O)C(C)NC(=O)C(CCC(=O)N)NC(=O)CNC(=O)C(CCC(=O)O)NC(=O)C(CC(C)C)NC(=O)C(CC4=CC=C(C=C4)O)NC(=O)C(CO)NC(=O)C(CO)NC(=O)C(C(C)C)NC(=O)C(CC(=O)O)NC(=O)C(CO)NC(=O)C(C(C)O)NC(=O)C(CC5=CC=CC=C5)NC(=O)C(C(C)O)NC(=O)CNC(=O)C(CCC(=O)O)NC(=O)C(C)NC(=O)C(CC6=CN=CN6)N)C(=O)O\u000a
p1322
sba(i__main__
Molecule
p1323
(dp1324
g3
VWelchol (colesevelam hydrochloride)
p1325
sg5
Vcolesevelam hydrochloride
p1326
sg7
g1256
sg9
VCCCCCCCCCCNCC=C.C[N+](C)(C)CCCCCCNCC=C.C=CCN.C1C(O1)CCl.Cl.[Cl-]\u000a
p1327
sba(i__main__
Molecule
p1328
(dp1329
g3
VMetozolv ODT (metoclopramide hydrochloride)
p1330
sg5
Vmetoclopramide hydrochloride
p1331
sg7
VDiabetic Gastroparesis
p1332
sg9
VCCN(CC)CCNC(=O)C1=CC(=C(C=C1OC)N)Cl.Cl\u000a
p1333
sba(i__main__
Molecule
p1334
(dp1335
g3
VLucentis (ranibizumab injection)
p1336
sg5
Vranibizumab injection
p1337
sg7
VDiabetic Macular Edema
p1338
sg9
VO\u000a
p1339
sba(i__main__
Molecule
p1340
(dp1341
g3
VNesina (alogliptin)
p1342
sg5
Valogliptin
p1343
sg7
VDiet and Nutrition
p1344
sg9
VCN1C(=O)C=C(N(C1=O)CC2=CC=CC=C2C#N)N3CCCC(C3)N\u000a
p1345
sba(i__main__
Molecule
p1346
(dp1347
g3
VNorthera (droxidopa)
p1348
sg5
Vdroxidopa
p1349
sg7
VDizzy/Fainting Spells
p1350
sg9
VC1=CC(=C(C=C1C(C(C(=O)O)N)O)O)O\u000a
p1351
sba(i__main__
Molecule
p1352
(dp1353
g3
VXiidra (lifitegrast)
p1354
sg5
Vlifitegrast
p1355
sg7
VDry Eye Disease
p1356
sg9
VCS(=O)(=O)C1=CC=CC(=C1)CC(C(=O)O)NC(=O)C2=C(C=C3CN(CCC3=C2Cl)C(=O)C4=CC5=C(C=C4)C=CO5)Cl\u000a
p1357
sba(i__main__
Molecule
p1358
(dp1359
g3
VPrilosec (omeprazole)/Biaxin (clarithromycin) Combination Therapy
p1360
sg5
Vomeprazole
p1361
sg7
VDuodenal Ulcers
p1362
sg9
VCC1=CN=C(C(=C1OC)C)CS(=O)C2=NC3=C(N2)C=C(C=C3)OC\u000a
p1363
sba(i__main__
Molecule
p1364
(dp1365
g3
VGocovri (amantadine) 
p1366
sg5
Vamantadine
p1367
sg7
VDyskinesias
p1368
sg9
VC1C2CC3CC1CC(C2)(C3)N\u000a
p1369
sba(i__main__
Molecule
p1370
(dp1371
g3
VCedax (ceftibuten)
p1372
sg5
Vceftibuten
p1373
sg7
VEar Infections
p1374
sg9
VC1C=C(N2C(S1)C(C2=O)NC(=O)C(=CCC(=O)O)C3=CSC(=N3)N)C(=O)O\u000a
p1375
sba(i__main__
Molecule
p1376
(dp1377
g3
VRocephin
p1378
sg5
VRocephi
p1379
sg7
VEar Infections (Pediatric)
p1380
sg9
VCN1C(=NC(=O)C(=O)N1)SCC2=C(N3C(C(C3=O)NC(=O)C(=NOC)C4=CSC(=N4)N)SC2)C(=O)O\u000a
p1381
sba(i__main__
Molecule
p1382
(dp1383
g3
VAkynzeo (netupitant and palonosetron)
p1384
sg5
Vnetupitant and palonosetron
p1385
sg7
VEffects of Chemotherapy
p1386
sg9
VCC=C(C=C)C1=CC(=NC=C1N(C)C(=O)C(C)(C)C2=CC(=CC(=C2)C(F)(F)F)C(F)(F)F)N3CCN(CC3)C.C1CC2CN(C(=O)C3=C2C(=CC=C3)C1)C4CN5CCC4CC5\u000a
p1387
sba(i__main__
Molecule
p1388
(dp1389
g3
VSustol (granisetron)
p1390
sg5
Vgranisetron
p1391
sg7
g1386
sg9
VCN1C2CCCC1CC(C2)NC(=O)C3=NN(C4=CC=CC=C43)C\u000a
p1392
sba(i__main__
Molecule
p1393
(dp1394
g3
VVarubi (rolapitant)
p1395
sg5
Vrolapitant
p1396
sg7
g1386
sg9
VCC(C1=CC(=CC(=C1)C(F)(F)F)C(F)(F)F)OCC2(CCC3(CCC(=O)N3)CN2)C4=CC=CC=C4\u000a
p1397
sba(i__main__
Molecule
p1398
(dp1399
g3
VVistogard (uridine triacetate)
p1400
sg5
Vuridine triacetate
p1401
sg7
g1386
sg9
VCC(=O)OCC1C(C(C(O1)N2C=CC(=O)NC2=O)OC(=O)C)OC(=O)C\u000a
p1402
sba(i__main__
Molecule
p1403
(dp1404
g3
VEpanova (omega-3-carboxylic acids)
p1405
sg5
Vomega-3-carboxylic acids
p1406
sg7
VElevated Triglycerides (Hypertriglyceridemia)
p1407
sg9
VCCOC1=CC=C(O1)C(=O)O\u000a
p1408
sba(i__main__
Molecule
p1409
(dp1410
g3
VBriviact (brivaracetam)
p1411
sg5
Vbrivaracetam
p1412
sg7
VEpilepsy
p1413
sg9
VCCCC1CC(=O)N(C1)C(CC)C(=O)N\u000a
p1414
sba(i__main__
Molecule
p1415
(dp1416
g3
VCarnexiv (carbamazepine)
p1417
sg5
Vcarbamazepine
p1418
sg7
g1413
sg9
VC1=CC=C2C(=C1)C=CC3=CC=CC=C3N2C(=O)N\u000a
p1419
sba(i__main__
Molecule
p1420
(dp1421
g3
VDepakote (divalproex sodium)
p1422
sg5
Vdivalproex sodium
p1423
sg7
g1413
sg9
VCCCC(CCC)C(=O)O.CCCC(CCC)C(=O)[O-].[Na+]\u000a
p1424
sba(i__main__
Molecule
p1425
(dp1426
g3
VFycompa (perampanel)
p1427
sg5
Vperampanel
p1428
sg7
g1413
sg9
VC1=CC=C(C=C1)N2C=C(C=C(C2=O)C3=CC=CC=C3C#N)C4=CC=CC=N4\u000a
p1429
sba(i__main__
Molecule
p1430
(dp1431
g3
VKeppra
p1432
sg5
VKeppr
p1433
sg7
g1413
sg9
VCCC(C(=O)N)N1CCCC1=O\u000a
p1434
sba(i__main__
Molecule
p1435
(dp1436
g3
VNeurontin (gabapentin) oral solution
p1437
sg5
Vgabapentin
p1438
sg7
g1413
sg9
VC1CCC(CC1)(CC(=O)O)CN\u000a
p1439
sba(i__main__
Molecule
p1440
(dp1441
g3
VTegretol (carbamazepine)
p1442
sg5
Vcarbamazepine
p1443
sg7
g1413
sg9
VC1=CC=C2C(=C1)C=CC3=CC=CC=C3N2C(=O)N\u000a
p1444
sba(i__main__
Molecule
p1445
(dp1446
g3
VTegretol XR (carbamazepine)
p1447
sg5
Vcarbamazepine
p1448
sg7
g1413
sg9
VC1=CC=C2C(=C1)C=CC3=CC=CC=C3N2C(=O)N\u000a
p1449
sba(i__main__
Molecule
p1450
(dp1451
g3
VTrileptal (oxcarbazepine) Tablets
p1452
sg5
Voxcarbazepine
p1453
sg7
g1413
sg9
VC1C2=CC=CC=C2N(C3=CC=CC=C3C1=O)C(=O)N\u000a
p1454
sba(i__main__
Molecule
p1455
(dp1456
g3
VVimpat (lacosamide)
p1457
sg5
Vlacosamide
p1458
sg7
g1413
sg9
VCC(=O)NC(COC)C(=O)NCC1=CC=CC=C1\u000a
p1459
sba(i__main__
Molecule
p1460
(dp1461
g3
VZonegran (zonisamide) Capsules
p1462
sg5
Vzonisamide
p1463
sg7
g1413
sg9
VC1=CC=C2C(=C1)C(=NO2)CS(=O)(=O)N\u000a
p1464
sba(i__main__
Molecule
p1465
(dp1466
g3
VBriviact (brivaracetam)
p1467
sg5
Vbrivaracetam
p1468
sg7
VEpilepsy (Pediatric)
p1469
sg9
VCCCC1CC(=O)N(C1)C(CC)C(=O)N\u000a
p1470
sba(i__main__
Molecule
p1471
(dp1472
g3
VFycompa (perampanel)
p1473
sg5
Vperampanel
p1474
sg7
g1469
sg9
VC1=CC=C(C=C1)N2C=C(C=C(C2=O)C3=CC=CC=C3C#N)C4=CC=CC=N4\u000a
p1475
sba(i__main__
Molecule
p1476
(dp1477
g3
VCialis (tadalafil)
p1478
sg5
Vtadalafil
p1479
sg7
VErectile Dysfunction
p1480
sg9
VCN1CC(=O)N2C(C1=O)CC3=C(C2C4=CC5=C(C=C4)OCO5)NC6=CC=CC=C36\u000a
p1481
sba(i__main__
Molecule
p1482
(dp1483
g3
VEDEX
p1484
sg5
VEDE
p1485
sg7
g1480
sg9
VC1=CC(=CC=C1C(CC(=O)NCC(C(=O)NC(CN)C(=O)NC(CCCC(C(CC(=O)NCC(=O)NCCCNCCCCC(=N)N)O)N)C(=O)O)O)N)O\u000a
p1486
sba(i__main__
Molecule
p1487
(dp1488
g3
VLevitra (vardenafil)
p1489
sg5
Vvardenafil
p1490
sg7
g1480
sg9
VCCCC1=NC(=C2N1NC(=NC2=O)C3=C(C=CC(=C3)S(=O)(=O)N4CCN(CC4)CC)OCC)C\u000a
p1491
sba(i__main__
Molecule
p1492
(dp1493
g3
VStendra (avanafil)
p1494
sg5
Vavanafil
p1495
sg7
g1480
sg9
VCOC1=C(C=C(C=C1)CNC2=NC(=NC=C2C(=O)NCC3=NC=CC=N3)N4CCCC4CO)Cl\u000a
p1496
sba(i__main__
Molecule
p1497
(dp1498
g3
VStendra (avanafil)
p1499
sg5
Vavanafil
p1500
sg7
g1480
sg9
VCOC1=C(C=C(C=C1)CNC2=NC(=NC=C2C(=O)NCC3=NC=CC=N3)N4CCCC4CO)Cl\u000a
p1501
sba(i__main__
Molecule
p1502
(dp1503
g3
VCystaran (cysteamine hydrochloride)
p1504
sg5
Vcysteamine hydrochloride
p1505
sg7
VEye Disorders/Infections
p1506
sg9
VC(CS)N.Cl\u000a
p1507
sba(i__main__
Molecule
p1508
(dp1509
g3
VCystaran (cysteamine hydrochloride)
p1510
sg5
Vcysteamine hydrochloride
p1511
sg7
VEye Disorders/Infections (Pediatric)
p1512
sg9
VC(CS)N.Cl\u000a
p1513
sba(i__main__
Molecule
p1514
(dp1515
g3
VZejula (niraparib)
p1516
sg5
Vniraparib
p1517
sg7
VFallopian Tube Cancer
p1518
sg9
VC1CC(CNC1)C2=CC=C(C=C2)N3C=C4C=CC=C(C4=N3)C(=O)N\u000a
p1519
sba(i__main__
Molecule
p1520
(dp1521
g3
VAddyi (flibanserin)
p1522
sg5
Vflibanserin
p1523
sg7
VFemale Hormonal Deficiencies/Abnormalities
p1524
sg9
VC1CN(CCN1CCN2C3=CC=CC=C3NC2=O)C4=CC=CC(=C4)C(F)(F)F\u000a
p1525
sba(i__main__
Molecule
p1526
(dp1527
g3
VOsphena (ospemifene)
p1528
sg5
Vospemifene
p1529
sg7
g1524
sg9
VC1=CC=C(C=C1)C(=C(C2=CC=CC=C2)C3=CC=C(C=C3)OCCO)CCCl\u000a
p1530
sba(i__main__
Molecule
p1531
(dp1532
g3
VAliqopa (copanlisib)
p1533
sg5
Vcopanlisib
p1534
sg7
VFollicular Lymphoma
p1535
sg9
VCOC1=C(C=CC2=C1N=C(N3C2=NCC3)NC(=O)C4=CN=C(N=C4)N)OCCCN5CCOCC5\u000a
p1536
sba(i__main__
Molecule
p1537
(dp1538
g3
VCancidas
p1539
sg5
VCancida
p1540
sg7
VFungal Infections
p1541
sg9
VCCC(C)CC(C)CCCCCCCCC(=O)NC1CC(C(NC(=O)C2C(CCN2C(=O)C(NC(=O)C(NC(=O)C3CC(CN3C(=O)C(NC1=O)C(C)O)O)C(C(C4=CC=C(C=C4)O)O)O)C(CCN)O)O)NCCN)O.CC(=O)O.CC(=O)O\u000a
p1542
sba(i__main__
Molecule
p1543
(dp1544
g3
VCresemba (isavuconazonium sulfate) 
p1545
sg5
Visavuconazonium sulfate
p1546
sg7
g1541
sg9
VCC(C1=NC(=CS1)C2=CC=C(C=C2)C#N)C(CN3C=[N+](C=N3)C(C)OC(=O)N(C)C4=C(C=CC=N4)COC(=O)CNC)(C5=C(C=CC(=C5)F)F)O\u000a
p1547
sba(i__main__
Molecule
p1548
(dp1549
g3
VEraxis (anidulafungin)
p1550
sg5
Vanidulafungin
p1551
sg7
g1541
sg9
VCCCCCOC1=CC=C(C=C1)C2=CC=C(C=C2)C3=CC=C(C=C3)C(=O)NC4CC(C(NC(=O)C5C(C(CN5C(=O)C(NC(=O)C(NC(=O)C6CC(CN6C(=O)C(NC4=O)C(C)O)O)C(C(C7=CC=C(C=C7)O)O)O)C(C)O)C)O)O)O\u000a
p1552
sba(i__main__
Molecule
p1553
(dp1554
g3
VJublia (efinaconazole) 10% topical gel
p1555
sg5
Vefinaconazole
p1556
sg7
g1541
sg9
VCC(C(CN1C=NC=N1)(C2=C(C=C(C=C2)F)F)O)N3CCC(=C)CC3\u000a
p1557
sba(i__main__
Molecule
p1558
(dp1559
g3
VKerydin (tavaborole)
p1560
sg5
Vtavaborole
p1561
sg7
g1541
sg9
VB1(C2=C(CO1)C=C(C=C2)F)O\u000a
p1562
sba(i__main__
Molecule
p1563
(dp1564
g3
VLamisil (terbinafine hydrochloride) Tablets
p1565
sg5
Vterbinafine hydrochloride
p1566
sg7
g1541
sg9
VCC(C)(C)C#CC=CCN(C)CC1=CC=CC2=CC=CC=C21.Cl\u000a
p1567
sba(i__main__
Molecule
p1568
(dp1569
g3
VLuzu (luliconazole) Cream 1%
p1570
sg5
Vluliconazole
p1571
sg7
g1541
sg9
VC1C(SC(=C(C#N)N2C=CN=C2)S1)C3=C(C=C(C=C3)Cl)Cl\u000a
p1572
sba(i__main__
Molecule
p1573
(dp1574
g3
VNoxafil (posaconazole)
p1575
sg5
Vposaconazole
p1576
sg7
g1541
sg9
VCCC(C(C)O)N1C(=O)N(C=N1)C2=CC=C(C=C2)N3CCN(CC3)C4=CC=C(C=C4)OCC5CC(OC5)(CN6C=NC=N6)C7=C(C=C(C=C7)F)F\u000a
p1577
sba(i__main__
Molecule
p1578
(dp1579
g3
VVfend (voriconazole)
p1580
sg5
Vvoriconazole
p1581
sg7
g1541
sg9
VCC(C1=NC=NC=C1F)C(CN2C=NC=N2)(C3=C(C=C(C=C3)F)F)O\u000a
p1582
sba(i__main__
Molecule
p1583
(dp1584
g3
VHerceptin (trastuzumab)
p1585
sg5
Vtrastuzumab
p1586
sg7
VGastric Cancer
p1587
sg9
VCCCCN1C(=O)C(NC(=O)C12CCN(CC2)CC3=CC=C(C=C3)OC4=CC=C(C=C4)C(=O)O)C(C5CCCCC5)O\u000a
p1588
sba(i__main__
Molecule
p1589
(dp1590
g3
VStivarga (regorafenib)
p1591
sg5
Vregorafenib
p1592
sg7
g1587
sg9
VCNC(=O)C1=NC=CC(=C1)OC2=CC(=C(C=C2)NC(=O)NC3=CC(=C(C=C3)Cl)C(F)(F)F)F\u000a
p1593
sba(i__main__
Molecule
p1594
(dp1595
g3
VStivarga (regorafenib)
p1596
sg5
Vregorafenib
p1597
sg7
g1587
sg9
VCNC(=O)C1=NC=CC(=C1)OC2=CC(=C(C=C2)NC(=O)NC3=CC(=C(C=C3)Cl)C(F)(F)F)F\u000a
p1598
sba(i__main__
Molecule
p1599
(dp1600
g3
VPrilosec (omeprazole)
p1601
sg5
Vomeprazole
p1602
sg7
VGastric Ulcers
p1603
sg9
VCC1=CN=C(C(=C1OC)C)CS(=O)C2=NC3=C(N2)C=C(C=C3)OC\u000a
p1604
sba(i__main__
Molecule
p1605
(dp1606
g3
VAciphex (rabeprazole sodium)
p1607
sg5
Vrabeprazole sodium
p1608
sg7
VGastroesophageal Reflux Disease (GERD)
p1609
sg9
VCC1=C(C=CN=C1CS(=O)C2=NC3=CC=CC=C3[N-]2)OCCCOC.[Na+]\u000a
p1610
sba(i__main__
Molecule
p1611
(dp1612
g3
VMetozolv ODT (metoclopramide hydrochloride)
p1613
sg5
Vmetoclopramide hydrochloride
p1614
sg7
g1609
sg9
VCCN(CC)CCNC(=O)C1=CC(=C(C=C1OC)N)Cl.Cl\u000a
p1615
sba(i__main__
Molecule
p1616
(dp1617
g3
VNexium (esomeprazole magnesium)
p1618
sg5
Vesomeprazole magnesium
p1619
sg7
g1609
sg9
VCC1=CN=C(C(=C1OC)C)CS(=O)C2=NC3=C(N2)C=C(C=C3)OC\u000a
p1620
sba(i__main__
Molecule
p1621
(dp1622
g3
VPrilosec (omeprazole)
p1623
sg5
Vomeprazole
p1624
sg7
g1609
sg9
VCC1=CN=C(C(=C1OC)C)CS(=O)C2=NC3=C(N2)C=C(C=C3)OC\u000a
p1625
sba(i__main__
Molecule
p1626
(dp1627
g3
VProtonix (pantoprazole sodium) Delayed-Release Tablets
p1628
sg5
Vpantoprazole sodium
p1629
sg7
g1609
sg9
VCOC1=C(C(=NC=C1)CS(=O)C2=NC3=C(N2)C=C(C=C3)OC(F)F)OC\u000a
p1630
sba(i__main__
Molecule
p1631
(dp1632
g3
VProtonix (pantoprazole sodium) Intravenous Formulation
p1633
sg5
Vpantoprazole sodium
p1634
sg7
g1609
sg9
VCOC1=C(C(=NC=C1)CS(=O)C2=NC3=C(N2)C=C(C=C3)OC(F)F)OC\u000a
p1635
sba(i__main__
Molecule
p1636
(dp1637
g3
VGattex (teduglutide)
p1638
sg5
Vteduglutide
p1639
sg7
VGastrointestinal Diseases and Disorders
p1640
sg9
VCCC(C)C(C(=O)NC(C(C)O)C(=O)NC(CC(=O)O)C(=O)O)NC(=O)C(CCCCN)NC(=O)C(C(C)O)NC(=O)C(CCC(=O)N)NC(=O)C(C(C)CC)NC(=O)C(CC(C)C)NC(=O)C(CC1=CNC2=CC=CC=C21)NC(=O)C(CC(=O)N)NC(=O)C(C(C)CC)NC(=O)C(CC3=CC=CC=C3)NC(=O)C(CC(=O)O)NC(=O)C(CCCNC(=N)N)NC(=O)C(C)NC(=O)C(C)NC(=O)C(CC(C)C)NC(=O)C(CC(=O)N)NC(=O)C(CC(=O)O)NC(=O)C(CC(C)C)NC(=O)C(C(C)CC)NC(=O)C(C(C)O)NC(=O)C(CC(=O)N)NC(=O)C(CCSC)NC(=O)C(CCC(=O)O)NC(=O)C(CC(=O)O)NC(=O)C(CO)NC(=O)C(CC4=CC=CC=C4)NC(=O)C(CO)NC(=O)CNC(=O)C(CC(=O)O)NC(=O)CNC(=O)C(CC5=CN=CN5)N\u000a
p1641
sba(i__main__
Molecule
p1642
(dp1643
g3
VProtonix (pantoprazole sodium) Delayed Release Tablets
p1644
sg5
Vpantoprazole sodium
p1645
sg7
g1640
sg9
VCOC1=C(C(=NC=C1)CS(=O)C2=NC3=C(N2)C=C(C=C3)OC(F)F)OC\u000a
p1646
sba(i__main__
Molecule
p1647
(dp1648
g3
VCerdelga (eliglustat)
p1649
sg5
Veliglustat
p1650
sg7
VGaucher Disease
p1651
sg9
VCCCCCCCC(=O)NC(CN1CCCC1)C(C2=CC3=C(C=C2)OCCO3)O.CCCCCCCC(=O)NC(CN1CCCC1)C(C2=CC3=C(C=C2)OCCO3)O.C(C(C(=O)O)O)(C(=O)O)O\u000a
p1652
sba(i__main__
Molecule
p1653
(dp1654
g3
VElelyso (taliglucerase alfa)
p1655
sg5
Vtaliglucerase alfa
p1656
sg7
g1651
sg9
VC1=CC(=CC(=C1)Cl)C(F)(F)F\u000a
p1657
sba(i__main__
Molecule
p1658
(dp1659
g3
VZurampic (lesinurad)
p1660
sg5
Vlesinurad
p1661
sg7
VGout (Hyperuricemia)
p1662
sg9
VC1CC1C2=CC=C(C3=CC=CC=C23)N4C(=NN=C4Br)SCC(=O)O\u000a
p1663
sba(i__main__
Molecule
p1664
(dp1665
g3
VGenotropin (somatropin) injection
p1666
sg5
Vsomatropin
p1667
sg7
VGrowth Hormone Deficiencies/Abnormalities
p1668
sg9
VCC(C1C(=O)NC(C(=O)NC(C(=O)NC(C(=O)NC(CSSCC(C(=O)NC(C(=O)NC(C(=O)NC(C(=O)NC(C(=O)NC(C(=O)NC(C(=O)N1)CCCCN)CC2=CNC3=CC=CC=C32)CC4=CC=CC=C4)CC5=CC=CC=C5)CC(=O)N)CCCCN)NC(=O)CNC(=O)C(C)N)C(=O)O)CO)C(C)O)CC6=CC=CC=C6)O\u000a
p1669
sba(i__main__
Molecule
p1670
(dp1671
g3
VGenotropin (somatropin) lyophilized powder
p1672
sg5
Vsomatropin
p1673
sg7
g1668
sg9
VCC(C1C(=O)NC(C(=O)NC(C(=O)NC(C(=O)NC(CSSCC(C(=O)NC(C(=O)NC(C(=O)NC(C(=O)NC(C(=O)NC(C(=O)NC(C(=O)N1)CCCCN)CC2=CNC3=CC=CC=C32)CC4=CC=CC=C4)CC5=CC=CC=C5)CC(=O)N)CCCCN)NC(=O)CNC(=O)C(C)N)C(=O)O)CO)C(C)O)CC6=CC=CC=C6)O\u000a
p1674
sba(i__main__
Molecule
p1675
(dp1676
g3
VMacrilen (macimorelin)
p1677
sg5
Vmacimorelin
p1678
sg7
g1668
sg9
VCC(C)(C(=O)NC(CC1=CNC2=CC=CC=C21)C(=O)NC(CC3=CNC4=CC=CC=C43)NC=O)N\u000a
p1679
sba(i__main__
Molecule
p1680
(dp1681
g3
VSaizen
p1682
sg5
VSaize
p1683
sg7
g1668
sg9
V[Al]\u000a
p1684
sba(i__main__
Molecule
p1685
(dp1686
g3
VSklice (ivermectin) lotion
p1687
sg5
Vivermectin
p1688
sg7
VHead Lice
p1689
sg9
VCCC(C)C1C(CCC2(O1)CC3CC(O2)CC=C(C(C(C=CC=C4COC5C4(C(C=C(C5O)C)C(=O)O3)O)C)OC6CC(C(C(O6)C)OC7CC(C(C(O7)C)O)OC)OC)C)C\u000a
p1690
sba(i__main__
Molecule
p1691
(dp1692
g3
VKengreal (cangrelor) 
p1693
sg5
Vcangrelor
p1694
sg7
VHeart Attack (Myocardial Infarction)
p1695
sg9
VCSCCNC1=NC(=NC2=C1N=CN2C3C(C(C(O3)COP(=O)(O)OP(=O)(C(P(=O)(O)O)(Cl)Cl)O)O)O)SCCC(F)(F)F\u000a
p1696
sba(i__main__
Molecule
p1697
(dp1698
g3
VPravachol (pravastatin sodium)
p1699
sg5
Vpravastatin sodium
p1700
sg7
VHeart Disease
p1701
sg9
VCCC(C)C(=O)OC1CC(C=C2C1C(C(C=C2)C)CCC(CC(CC(=O)[O-])O)O)O.[Na+]\u000a
p1702
sba(i__main__
Molecule
p1703
(dp1704
g3
VCorlanor (ivabradine)
p1705
sg5
Vivabradine
p1706
sg7
VHeart Failure
p1707
sg9
VCN(CCCN1CCC2=CC(=C(C=C2CC1=O)OC)OC)CC3CC4=CC(=C(C=C34)OC)OC\u000a
p1708
sba(i__main__
Molecule
p1709
(dp1710
g3
VEntresto (sacubitril and valsartan)
p1711
sg5
Vsacubitril and valsartan
p1712
sg7
g1707
sg9
VCCOC(=O)C(C)CC(CC1=CC=C(C=C1)C2=CC=CC=C2)NC(=O)CCC(=O)O\u000a
p1713
sba(i__main__
Molecule
p1714
(dp1715
g3
VPrinivil or Zestril (Lisinopril)
p1716
sg5
VLisinopril
p1717
sg7
g1707
sg9
VC1CC(N(C1)C(=O)C(CCCCN)NC(CCC2=CC=CC=C2)C(=O)O)C(=O)O\u000a
p1718
sba(i__main__
Molecule
p1719
(dp1720
g3
VToprol-XL (metoprolol succinate)
p1721
sg5
Vmetoprolol succinate
p1722
sg7
g1707
sg9
VCC(C)NCC(COC1=CC=C(C=C1)CCOC)O\u000a
p1723
sba(i__main__
Molecule
p1724
(dp1725
g3
VCellCept
p1726
sg5
VCellCep
p1727
sg7
VHeart Transplantation
p1728
sg9
VCC1=C(C(=C(C2=C1COC2=O)O)CC=C(C)CCC(=O)OCCN3CCOCC3)OC\u000a
p1729
sba(i__main__
Molecule
p1730
(dp1731
g3
VPREVACID(R) (lansopraxole)
p1732
sg5
g419
sg7
VHeartburn
p1733
sg9
VCC(C)(C)OC(=O)N1CCC(C1)O\u000a
p1734
sba(i__main__
Molecule
p1735
(dp1736
g3
VPrilosec (omeprazole)
p1737
sg5
Vomeprazole
p1738
sg7
g1733
sg9
VCC1=CN=C(C(=C1OC)C)CS(=O)C2=NC3=C(N2)C=C(C=C3)OC\u000a
p1739
sba(i__main__
Molecule
p1740
(dp1741
g3
VParsabiv (etelcalcetide)
p1742
sg5
Vetelcalcetide
p1743
sg7
VHemodialysis
p1744
sg9
VCC(C(=O)NC(CCCN=C(N)N)C(=O)N)NC(=O)C(CCCN=C(N)N)NC(=O)C(CCCN=C(N)N)NC(=O)C(CCCN=C(N)N)NC(=O)C(C)NC(=O)C(CSSCC(C(=O)O)N)NC(=O)C\u000a
p1745
sba(i__main__
Molecule
p1746
(dp1747
g3
VAlphaNine SD Coagulation Factor IX (Human)
p1748
sg5
VHuman
p1749
sg7
VHemophilia
p1750
sg9
VCCC(C)C1C(=O)NCC(=O)NC(C(=O)NC(C(=O)NC(C(=O)NCC(=O)NC(C(=O)NCC(=O)NC(CSSCC(C(=O)NC(C(=O)NCC(=O)NCC(=O)NC(C(=O)NC(C(=O)NC(C(=O)NC(C(=O)N1)CCCNC(=N)N)CC(=O)O)CCSC)CCCNC(=N)N)CC2=CC=CC=C2)NC(=O)C(CO)NC(=O)C(CO)NC(=O)C(CCCNC(=N)N)NC(=O)C(CCCNC(=N)N)NC(=O)C(CC(C)C)NC(=O)C(CO)N)C(=O)NC(CC(=O)N)C(=O)NC(CO)C(=O)NC(CC3=CC=CC=C3)C(=O)NC(CCCNC(=N)N)C(=O)NC(CC4=CC=C(C=C4)O)C(=O)O)CC(C)C)CO)CCC(=O)N)C\u000a
p1751
sba(i__main__
Molecule
p1752
(dp1753
g3
VAlprolix [Coagulation Factor IX (Recombinant), Fc Fusion Protein]
p1754
sg5
VRecombinant
p1755
sg7
g1750
sg9
VCCC(C)C1C(=O)NC2CSSCC(C(=O)NC(CSSCC(C(=O)NCC(=O)NC(C(=O)NC(C(=O)NC(C(=O)NC(C(=O)NC(C(=O)NC(C(=O)NC(C(=O)NC(C(=O)NC(C(=O)NC(C(=O)NC(CSSCC(NC(=O)C(NC(=O)C(NC(=O)C(NC(=O)C(NC(=O)C(NC(=O)C(NC(=O)C(NC(=O)C(NC2=O)CO)CC(C)C)CC3=CC=C(C=C3)O)CCC(=O)N)CC(C)C)CCC(=O)O)CC(=O)N)CC4=CC=C(C=C4)O)C(=O)NC(CC(=O)N)C(=O)O)C(=O)NCC(=O)NC(CCC(=O)O)C(=O)NC(CCCNC(=N)N)C(=O)NCC(=O)NC(CC5=CC=CC=C5)C(=O)NC(CC6=CC=CC=C6)C(=O)NC(CC7=CC=C(C=C7)O)C(=O)NC(C(C)O)C(=O)N8CCCC8C(=O)NC(CCCCN)C(=O)NC(C(C)O)C(=O)O)C(C)C)CC(C)C)CC9=CC=C(C=C9)O)CC(C)C)C)CCC(=O)O)C(C)C)CC(C)C)CC2=CNC=N2)CO)NC(=O)C(CC(C)C)NC(=O)C(CC2=CNC=N2)NC(=O)C(CCC(=O)N)NC(=O)C(C(=O)N)NC(=O)C(C(C)C)NC(=O)C(CC2=CC=CC=C2)N)C(=O)NC(C(=O)NC(C(=O)N1)CO)C(C)O)NC(=O)C(CCC(=O)N)NC(=O)C(CCC(=O)O)NC(=O)C(C(C)C)NC(=O)C(C(C)CC)NC(=O)CN\u000a
p1756
sba(i__main__
Molecule
p1757
(dp1758
g3
VEloctate [Antihemophilic Factor (Recombinant), Fc Fusion  Protein] 
p1759
sg5
VRecombinant
p1760
sg7
g1750
sg9
VCCC(C)C1C(=O)NC2CSSCC(C(=O)NC(CSSCC(C(=O)NCC(=O)NC(C(=O)NC(C(=O)NC(C(=O)NC(C(=O)NC(C(=O)NC(C(=O)NC(C(=O)NC(C(=O)NC(C(=O)NC(C(=O)NC(CSSCC(NC(=O)C(NC(=O)C(NC(=O)C(NC(=O)C(NC(=O)C(NC(=O)C(NC(=O)C(NC(=O)C(NC2=O)CO)CC(C)C)CC3=CC=C(C=C3)O)CCC(=O)N)CC(C)C)CCC(=O)O)CC(=O)N)CC4=CC=C(C=C4)O)C(=O)NC(CC(=O)N)C(=O)O)C(=O)NCC(=O)NC(CCC(=O)O)C(=O)NC(CCCNC(=N)N)C(=O)NCC(=O)NC(CC5=CC=CC=C5)C(=O)NC(CC6=CC=CC=C6)C(=O)NC(CC7=CC=C(C=C7)O)C(=O)NC(C(C)O)C(=O)N8CCCC8C(=O)NC(CCCCN)C(=O)NC(C(C)O)C(=O)O)C(C)C)CC(C)C)CC9=CC=C(C=C9)O)CC(C)C)C)CCC(=O)O)C(C)C)CC(C)C)CC2=CNC=N2)CO)NC(=O)C(CC(C)C)NC(=O)C(CC2=CNC=N2)NC(=O)C(CCC(=O)N)NC(=O)C(C(=O)N)NC(=O)C(C(C)C)NC(=O)C(CC2=CC=CC=C2)N)C(=O)NC(C(=O)NC(C(=O)N1)CO)C(C)O)NC(=O)C(CCC(=O)N)NC(=O)C(CCC(=O)O)NC(=O)C(C(C)C)NC(=O)C(C(C)CC)NC(=O)CN\u000a
p1761
sba(i__main__
Molecule
p1762
(dp1763
g3
VKovaltry [Antihemophilic Factor (Recombinant)]
p1764
sg5
VRecombinant
p1765
sg7
g1750
sg9
VCCC(C)C1C(=O)NC2CSSCC(C(=O)NC(CSSCC(C(=O)NCC(=O)NC(C(=O)NC(C(=O)NC(C(=O)NC(C(=O)NC(C(=O)NC(C(=O)NC(C(=O)NC(C(=O)NC(C(=O)NC(C(=O)NC(CSSCC(NC(=O)C(NC(=O)C(NC(=O)C(NC(=O)C(NC(=O)C(NC(=O)C(NC(=O)C(NC(=O)C(NC2=O)CO)CC(C)C)CC3=CC=C(C=C3)O)CCC(=O)N)CC(C)C)CCC(=O)O)CC(=O)N)CC4=CC=C(C=C4)O)C(=O)NC(CC(=O)N)C(=O)O)C(=O)NCC(=O)NC(CCC(=O)O)C(=O)NC(CCCNC(=N)N)C(=O)NCC(=O)NC(CC5=CC=CC=C5)C(=O)NC(CC6=CC=CC=C6)C(=O)NC(CC7=CC=C(C=C7)O)C(=O)NC(C(C)O)C(=O)N8CCCC8C(=O)NC(CCCCN)C(=O)NC(C(C)O)C(=O)O)C(C)C)CC(C)C)CC9=CC=C(C=C9)O)CC(C)C)C)CCC(=O)O)C(C)C)CC(C)C)CC2=CNC=N2)CO)NC(=O)C(CC(C)C)NC(=O)C(CC2=CNC=N2)NC(=O)C(CCC(=O)N)NC(=O)C(C(=O)N)NC(=O)C(C(C)C)NC(=O)C(CC2=CC=CC=C2)N)C(=O)NC(C(=O)NC(C(=O)N1)CO)C(C)O)NC(=O)C(CCC(=O)N)NC(=O)C(CCC(=O)O)NC(=O)C(C(C)C)NC(=O)C(C(C)CC)NC(=O)CN\u000a
p1766
sba(i__main__
Molecule
p1767
(dp1768
g3
VObizur [Antihemophilic Factor (Recombinant), Porcine Sequence]
p1769
sg5
VRecombinant
p1770
sg7
g1750
sg9
VCCC(C)C1C(=O)NC2CSSCC(C(=O)NC(CSSCC(C(=O)NCC(=O)NC(C(=O)NC(C(=O)NC(C(=O)NC(C(=O)NC(C(=O)NC(C(=O)NC(C(=O)NC(C(=O)NC(C(=O)NC(C(=O)NC(CSSCC(NC(=O)C(NC(=O)C(NC(=O)C(NC(=O)C(NC(=O)C(NC(=O)C(NC(=O)C(NC(=O)C(NC2=O)CO)CC(C)C)CC3=CC=C(C=C3)O)CCC(=O)N)CC(C)C)CCC(=O)O)CC(=O)N)CC4=CC=C(C=C4)O)C(=O)NC(CC(=O)N)C(=O)O)C(=O)NCC(=O)NC(CCC(=O)O)C(=O)NC(CCCNC(=N)N)C(=O)NCC(=O)NC(CC5=CC=CC=C5)C(=O)NC(CC6=CC=CC=C6)C(=O)NC(CC7=CC=C(C=C7)O)C(=O)NC(C(C)O)C(=O)N8CCCC8C(=O)NC(CCCCN)C(=O)NC(C(C)O)C(=O)O)C(C)C)CC(C)C)CC9=CC=C(C=C9)O)CC(C)C)C)CCC(=O)O)C(C)C)CC(C)C)CC2=CNC=N2)CO)NC(=O)C(CC(C)C)NC(=O)C(CC2=CNC=N2)NC(=O)C(CCC(=O)N)NC(=O)C(C(=O)N)NC(=O)C(C(C)C)NC(=O)C(CC2=CC=CC=C2)N)C(=O)NC(C(=O)NC(C(=O)N1)CO)C(C)O)NC(=O)C(CCC(=O)N)NC(=O)C(CCC(=O)O)NC(=O)C(C(C)C)NC(=O)C(C(C)CC)NC(=O)CN\u000a
p1771
sba(i__main__
Molecule
p1772
(dp1773
g3
VXifaxan (rifaximin)
p1774
sg5
Vrifaximin
p1775
sg7
VHepatic Encephalopathy
p1776
sg9
VCC1C=CC=C(C(=O)NC2=C(C3=C(C4=C(C(=C3O)C)OC(C4=O)(OC=CC(C(C(C(C(C(C1O)C)O)C)OC(=O)C)C)OC)C)C5=C2N6C=CC(=CC6=N5)C)O)C\u000a
p1777
sba(i__main__
Molecule
p1778
(dp1779
g3
VOlysio (simeprevir)
p1780
sg5
Vsimeprevir
p1781
sg7
VHepatitis
p1782
sg9
VCC1=C(C=CC2=C1N=C(C=C2OC3CC4C(C3)C(=O)N(CCCCC=CC5CC5(NC4=O)C(=O)NS(=O)(=O)C6CC6)C)C7=NC(=CS7)C(C)C)OC\u000a
p1783
sba(i__main__
Molecule
p1784
(dp1785
g3
VSovaldi (sofosbuvir)
p1786
sg5
Vsofosbuvir
p1787
sg7
g1782
sg9
VCC(C)OC(=O)C(C)NP(=O)(OCC1C(C(C(O1)N2C=CC(=O)NC2=O)(C)F)O)OC3=CC=CC=C3\u000a
p1788
sba(i__main__
Molecule
p1789
(dp1790
g3
VBaraclude (entecavir)
p1791
sg5
Ventecavir
p1792
sg7
VHepatitis B
p1793
sg9
VC=C1C(CC(C1CO)O)N2C=NC3=C2NC(=NC3=O)N\u000a
p1794
sba(i__main__
Molecule
p1795
(dp1796
g3
VHeplisav-B [Hepatitis B Vaccine (Recombinant), Adjuvanted] 
p1797
sg5
VRecombinant
p1798
sg7
g1793
sg9
VCCC(C)C1C(=O)NC2CSSCC(C(=O)NC(CSSCC(C(=O)NCC(=O)NC(C(=O)NC(C(=O)NC(C(=O)NC(C(=O)NC(C(=O)NC(C(=O)NC(C(=O)NC(C(=O)NC(C(=O)NC(C(=O)NC(CSSCC(NC(=O)C(NC(=O)C(NC(=O)C(NC(=O)C(NC(=O)C(NC(=O)C(NC(=O)C(NC(=O)C(NC2=O)CO)CC(C)C)CC3=CC=C(C=C3)O)CCC(=O)N)CC(C)C)CCC(=O)O)CC(=O)N)CC4=CC=C(C=C4)O)C(=O)NC(CC(=O)N)C(=O)O)C(=O)NCC(=O)NC(CCC(=O)O)C(=O)NC(CCCNC(=N)N)C(=O)NCC(=O)NC(CC5=CC=CC=C5)C(=O)NC(CC6=CC=CC=C6)C(=O)NC(CC7=CC=C(C=C7)O)C(=O)NC(C(C)O)C(=O)N8CCCC8C(=O)NC(CCCCN)C(=O)NC(C(C)O)C(=O)O)C(C)C)CC(C)C)CC9=CC=C(C=C9)O)CC(C)C)C)CCC(=O)O)C(C)C)CC(C)C)CC2=CNC=N2)CO)NC(=O)C(CC(C)C)NC(=O)C(CC2=CNC=N2)NC(=O)C(CCC(=O)N)NC(=O)C(C(=O)N)NC(=O)C(C(C)C)NC(=O)C(CC2=CC=CC=C2)N)C(=O)NC(C(=O)NC(C(=O)N1)CO)C(C)O)NC(=O)C(CCC(=O)N)NC(=O)C(CCC(=O)O)NC(=O)C(C(C)C)NC(=O)C(C(C)CC)NC(=O)CN\u000a
p1799
sba(i__main__
Molecule
p1800
(dp1801
g3
VTyzeka (telbivudine)
p1802
sg5
Vtelbivudine
p1803
sg7
g1793
sg9
VCC1=CN(C(=O)NC1=O)C2CC(C(O2)CO)O\u000a
p1804
sba(i__main__
Molecule
p1805
(dp1806
g3
VVemlidy (tenofovir alafenamide)
p1807
sg5
Vtenofovir alafenamide
p1808
sg7
g1793
sg9
VCC(C)OC(=O)C(C)NP(=O)(COC(C)CN1C=NC2=C1N=CN=C2N)OC3=CC=CC=C3\u000a
p1809
sba(i__main__
Molecule
p1810
(dp1811
g3
VViread (tenofovir disoproxil fumarate)
p1812
sg5
Vtenofovir disoproxil fumarate
p1813
sg7
g1793
sg9
VCC(CN1C=NC2=C1N=CN=C2N)OCP(=O)(O)O\u000a
p1814
sba(i__main__
Molecule
p1815
(dp1816
g3
VDaklinza (daclatasvir) 
p1817
sg5
Vdaclatasvir
p1818
sg7
VHepatitis C; Chronic
p1819
sg9
VCC(C)C(C(=O)N1CCCC1C2=NC=C(N2)C3=CC=C(C=C3)C4=CC=C(C=C4)C5=CN=C(N5)C6CCCN6C(=O)C(C(C)C)NC(=O)OC)NC(=O)OC\u000a
p1820
sba(i__main__
Molecule
p1821
(dp1822
g3
VEpclusa (sofosbuvir and velpatasvir) 
p1823
sg5
Vsofosbuvir and velpatasvir
p1824
sg7
g1819
sg9
VCC1CCC(N1C(=O)C(C(C)C)NC(=O)OC)C2=NC3=C(N2)C=CC4=CC5=C(C=C43)OCC6=C5C=CC(=C6)C7=CN=C(N7)C8CC(CN8C(=O)C(C9=CC=CC=C9)NC(=O)OC)COC.CC(C)OC(=O)C(C)NP(=O)(OCC1C(C(C(O1)N2C=CC(=O)NC2=O)(C)F)O)OC3=CC=CC=C3\u000a
p1825
sba(i__main__
Molecule
p1826
(dp1827
g3
VIncivek (telaprevir)
p1828
sg5
Vtelaprevir
p1829
sg7
g1819
sg9
VCCCC(C(=O)C(=O)NC1CC1)NC(=O)C2C3CCCC3CN2C(=O)C(C(C)(C)C)NC(=O)C(C4CCCCC4)NC(=O)C5=NC=CN=C5\u000a
p1830
sba(i__main__
Molecule
p1831
(dp1832
g3
VINFERGEN (interferon alfacon-1)
p1833
sg5
Vinterferon alfacon-1
p1834
sg7
g1819
sg9
VCC1=CN(C(=O)NC1=O)C2CC(C(O2)CO)N=[N+]=[N-]\u000a
p1835
sba(i__main__
Molecule
p1836
(dp1837
g3
VOlysio (simeprevir)
p1838
sg5
Vsimeprevir
p1839
sg7
g1819
sg9
VCC1=C(C=CC2=C1N=C(C=C2OC3CC4C(C3)C(=O)N(CCCCC=CC5CC5(NC4=O)C(=O)NS(=O)(=O)C6CC6)C)C7=NC(=CS7)C(C)C)OC\u000a
p1840
sba(i__main__
Molecule
p1841
(dp1842
g3
VRebetol (ribavirin)
p1843
sg5
Vribavirin
p1844
sg7
g1819
sg9
VC1=NC(=NN1C2C(C(C(O2)CO)O)O)C(=O)N\u000a
p1845
sba(i__main__
Molecule
p1846
(dp1847
g3
VREBETRON (TM) Combination Therapy
p1848
sg5
VTM
p1849
sg7
g1819
sg9
VCC(C)(C)CC(C)(C)C1=CC=C(C=C1)OCCOCCOCCOCCOCCOCCOCCO\u000a
p1850
sba(i__main__
Molecule
p1851
(dp1852
g3
VSovaldi (sofosbuvir)
p1853
sg5
Vsofosbuvir
p1854
sg7
g1819
sg9
VCC(C)OC(=O)C(C)NP(=O)(OCC1C(C(C(O1)N2C=CC(=O)NC2=O)(C)F)O)OC3=CC=CC=C3\u000a
p1855
sba(i__main__
Molecule
p1856
(dp1857
g3
VTechnivie, (ombitasvir, paritaprevir and ritonavir)
p1858
sg5
Vombitasvir, paritaprevir and ritonavir
p1859
sg7
g1819
sg9
VCC1=NC=C(N=C1)C(=O)NC2CCCCCC=CC3CC3(NC(=O)C4CC(CN4C2=O)OC5=NC6=CC=CC=C6C7=CC=CC=C75)C(=O)NS(=O)(=O)C8CC8.CC(C)C1=NC(=CS1)CN(C)C(=O)NC(C(C)C)C(=O)NC(CC2=CC=CC=C2)CC(C(CC3=CC=CC=C3)NC(=O)OCC4=CN=CS4)O.CC(C)C(C(=O)N1CCCC1C(=O)NC2=CC=C(C=C2)C3CCC(N3C4=CC=C(C=C4)C(C)(C)C)C5=CC=C(C=C5)NC(=O)C6CCCN6C(=O)C(C(C)C)NC(=O)OC)NC(=O)OC\u000a
p1860
sba(i__main__
Molecule
p1861
(dp1862
g3
VVictrelis (boceprevir)
p1863
sg5
Vboceprevir
p1864
sg7
g1819
sg9
VCC1(C2C1C(N(C2)C(=O)C(C(C)(C)C)NC(=O)NC(C)(C)C)C(=O)NC(CC3CCC3)C(=O)C(=O)N)C\u000a
p1865
sba(i__main__
Molecule
p1866
(dp1867
g3
VKalbitor (ecallantide)
p1868
sg5
Vecallantide
p1869
sg7
VHereditary Angioedema
p1870
sg9
VCCC(C)C1C(=O)NC(C(=O)NCC(=O)NCC(=O)NC2CSSCC3C(=O)NC(C(=O)NC(C(=O)NC(C(=O)NC(C(=O)N4CCCC4C(=O)NC(C(=O)NC(C(=O)NC(C(=O)NC(C(=O)NC(C(=O)NC(C(=O)NC(C(=O)NC(C(=O)NC(C(=O)NC(C(=O)NC(CSSCC(C(=O)NC(C(=O)NC(C(=O)NC(C(=O)NC(CSSCC(C(=O)NC(C(=O)NC(C(=O)NC(C(=O)NC(C(=O)NC(C(=O)NC(C(=O)NCC(=O)N5CCCC5C(=O)N3)CC(=O)O)CC(=O)O)C)CCCCN)CC6=CC=CC=C6)C)NC(=O)C(CC7=CC=CC=C7)NC(=O)C(CO)NC(=O)C(CC8=CN=CN8)NC(=O)C(CCSC)NC(=O)C(C)NC(=O)C(CCC(=O)O)N)C(=O)NC(C(C)O)C(=O)NC(CCCNC(=N)N)C(=O)NC(CC(=O)O)C(=O)O)CCSC)CCCCN)CCCCN)NC(=O)C(NC(=O)C(NC(=O)C(NC(=O)C(NC(=O)C(NC(=O)C(NC(=O)C(NC(=O)C(NC(=O)C(NC(=O)C(NC(=O)CNC(=O)C(NC2=O)CCC(=O)O)CC(=O)N)CCC(=O)N)CC(=O)N)CCCNC(=N)N)CC9=CC=CC=C9)CCC(=O)O)CO)CC(C)C)CCC(=O)O)CCC(=O)O)C(=O)NC(C(=O)NC(C(=O)NC(C(=O)N1)CC1=CC=CC=C1)CCC(=O)O)CCC(=O)O)CCC(=O)N)CCCNC(=N)N)C(C)O)CC1=CC=CC=C1)C(C)CC)CC(=O)N)CC1=CC=CC=C1)CC1=CC=CC=C1)CC1=CNC2=CC=CC=C21)CCCNC(=N)N)CC1=CN=CN1)C)C)CCCNC(=N)N)CC1=CC=C(C=C1)O\u000a
p1871
sba(i__main__
Molecule
p1872
(dp1873
g3
VABREVA (docosanol)
p1874
sg5
Vdocosanol
p1875
sg7
VHerpes Simplex Infections
p1876
sg9
VCCCCCCCCCCCCCCCCCCCCCCO\u000a
p1877
sba(i__main__
Molecule
p1878
(dp1879
g3
VFamvir (famciclovir)
p1880
sg5
Vfamciclovir
p1881
sg7
g1876
sg9
VCC(=O)OCC(CCN1C=NC2=CN=C(N=C21)N)COC(=O)C\u000a
p1882
sba(i__main__
Molecule
p1883
(dp1884
g3
VValtrex (valacyclovir HCl)
p1885
sg5
Vvalacyclovir HCl
p1886
sg7
g1876
sg9
VCC(C)C(C(=O)OCCOCN1C=NC2=C1NC(=NC2=O)N)N\u000a
p1887
sba(i__main__
Molecule
p1888
(dp1889
g3
VViroptic
p1890
sg5
VViropti
p1891
sg7
g1876
sg9
VC1C(C(OC1N2C=C(C(=O)NC2=O)C(F)(F)F)CO)O\u000a
p1892
sba(i__main__
Molecule
p1893
(dp1894
g3
VGralise (gabapentin)
p1895
sg5
Vgabapentin
p1896
sg7
VHerpetic Neuralgia
p1897
sg9
VC1CCC(CC1)(CC(=O)O)CN\u000a
p1898
sba(i__main__
Molecule
p1899
(dp1900
g3
VEdarbi (azilsartan medoxomil)
p1901
sg5
Vazilsartan medoxomil
p1902
sg7
VHigh Blood Pressure (Hypertension - Pediatric)
p1903
sg9
VCCOC1=NC2=CC=CC(=C2N1CC3=CC=C(C=C3)C4=CC=CC=C4C5=NC(=O)ON5)C(=O)OCC6=C(OC(=O)O6)C\u000a
p1904
sba(i__main__
Molecule
p1905
(dp1906
g3
VAtacand (candesartan cilexetil)
p1907
sg5
Vcandesartan cilexetil
p1908
sg7
VHigh Blood Pressure (Hypertension)
p1909
sg9
VCCOC1=NC2=CC=CC(=C2N1CC3=CC=C(C=C3)C4=CC=CC=C4C5=NNN=N5)C(=O)O\u000a
p1910
sba(i__main__
Molecule
p1911
(dp1912
g3
VBenicar
p1913
sg5
VBenica
p1914
sg7
g1909
sg9
VCCCC1=NC(=C(N1CC2=CC=C(C=C2)C3=CC=CC=C3C4=NNN=N4)C(=O)OCC5=C(OC(=O)O5)C)C(C)(C)O\u000a
p1915
sba(i__main__
Molecule
p1916
(dp1917
g3
VCleviprex (clevidipine)
p1918
sg5
Vclevidipine
p1919
sg7
g1909
sg9
VCCCC(=O)OCOC(=O)C1=C(NC(=C(C1C2=C(C(=CC=C2)Cl)Cl)C(=O)OC)C)C\u000a
p1920
sba(i__main__
Molecule
p1921
(dp1922
g3
VCorlopam
p1923
sg5
VCorlopa
p1924
sg7
g1909
sg9
VC1CNCC(C2=CC(=C(C(=C21)Cl)O)O)C3=CC=C(C=C3)O\u000a
p1925
sba(i__main__
Molecule
p1926
(dp1927
g3
VDiovan (valsartan)
p1928
sg5
Vvalsartan
p1929
sg7
g1909
sg9
VCCCCC(=O)N(CC1=CC=C(C=C1)C2=CC=CC=C2C3=NNN=N3)C(C(C)C)C(=O)O\u000a
p1930
sba(i__main__
Molecule
p1931
(dp1932
g3
VDiovan (valsartan)
p1933
sg5
Vvalsartan
p1934
sg7
g1909
sg9
VCCCCC(=O)N(CC1=CC=C(C=C1)C2=CC=CC=C2C3=NNN=N3)C(C(C)C)C(=O)O\u000a
p1935
sba(i__main__
Molecule
p1936
(dp1937
g3
VDiovan HCT (valsartan)
p1938
sg5
Vvalsartan
p1939
sg7
g1909
sg9
VCCCCC(=O)N(CC1=CC=C(C=C1)C2=CC=CC=C2C3=NNN=N3)C(C(C)C)C(=O)O\u000a
p1940
sba(i__main__
Molecule
p1941
(dp1942
g3
VDynaCirc CR
p1943
sg5
VDynaCirc C
p1944
sg7
g1909
sg9
VCC1=C(C(C(=C(N1)C)C(=O)OC(C)C)C2=CC=CC3=NON=C32)C(=O)OC\u000a
p1945
sba(i__main__
Molecule
p1946
(dp1947
g3
VEdarbi (azilsartan medoxomil)
p1948
sg5
Vazilsartan medoxomil
p1949
sg7
g1909
sg9
VCCOC1=NC2=CC=CC(=C2N1CC3=CC=C(C=C3)C4=CC=CC=C4C5=NC(=O)ON5)C(=O)OCC6=C(OC(=O)O6)C\u000a
p1950
sba(i__main__
Molecule
p1951
(dp1952
g3
VMavik (trandolapril)
p1953
sg5
Vtrandolapril
p1954
sg7
g1909
sg9
VCCOC(=O)C(CCC1=CC=CC=C1)NC(C)C(=O)N2C3CCCCC3CC2C(=O)O\u000a
p1955
sba(i__main__
Molecule
p1956
(dp1957
g3
VMicrozide (hydrochlorothiazide)
p1958
sg5
Vhydrochlorothiazide
p1959
sg7
g1909
sg9
VC1NC2=CC(=C(C=C2S(=O)(=O)N1)S(=O)(=O)N)Cl\u000a
p1960
sba(i__main__
Molecule
p1961
(dp1962
g3
VPindolol
p1963
sg5
VPindolo
p1964
sg7
g1909
sg9
VCC(C)NCC(COC1=CC=CC2=C1C=CN2)O\u000a
p1965
sba(i__main__
Molecule
p1966
(dp1967
g3
VPosicor
p1968
sg5
VPosico
p1969
sg7
g1909
sg9
VCC(C)C1C2=C(CCC1(CCN(C)CCCC3=NC4=CC=CC=C4N3)OC(=O)COC)C=C(C=C2)F\u000a
p1970
sba(i__main__
Molecule
p1971
(dp1972
g3
VPrinivil or Zestril (Lisinopril)
p1973
sg5
VLisinopril
p1974
sg7
g1909
sg9
VC1CC(N(C1)C(=O)C(CCCCN)NC(CCC2=CC=CC=C2)C(=O)O)C(=O)O\u000a
p1975
sba(i__main__
Molecule
p1976
(dp1977
g3
VTekamlo (aliskiren + amlodipine)
p1978
sg5
Valiskiren + amlodipine
p1979
sg7
g1909
sg9
VCCOC(=O)C1=C(NC(=C(C1C2=CC=CC=C2Cl)C(=O)OC)C)COCCN.CC(C)C(CC1=CC(=C(C=C1)OC)OCCCOC)CC(C(CC(C(C)C)C(=O)NCC(C)(C)C(=O)N)O)N\u000a
p1980
sba(i__main__
Molecule
p1981
(dp1982
g3
VTekturna (aliskiren)
p1983
sg5
Valiskiren
p1984
sg7
g1909
sg9
VCC(C)C(CC1=CC(=C(C=C1)OC)OCCCOC)CC(C(CC(C(C)C)C(=O)NCC(C)(C)C(=O)N)O)N\u000a
p1985
sba(i__main__
Molecule
p1986
(dp1987
g3
VTeveten (eprosartan mesylate)
p1988
sg5
Veprosartan mesylate
p1989
sg7
g1909
sg9
VCCCCC1=NC=C(N1CC2=CC=C(C=C2)C(=O)O)C=C(CC3=CC=CS3)C(=O)O.CS(=O)(=O)O\u000a
p1990
sba(i__main__
Molecule
p1991
(dp1992
g3
VTiazac (diltiazem hydrochloride)
p1993
sg5
Vdiltiazem hydrochloride
p1994
sg7
g1909
sg9
VCC(=O)OC1C(SC2=CC=CC=C2N(C1=O)CCN(C)C)C3=CC=C(C=C3)OC.Cl\u000a
p1995
sba(i__main__
Molecule
p1996
(dp1997
g3
VToprol-XL (metoprolol succinate)
p1998
sg5
Vmetoprolol succinate
p1999
sg7
g1909
sg9
VCC(C)NCC(COC1=CC=C(C=C1)CCOC)O\u000a
p2000
sba(i__main__
Molecule
p2001
(dp2002
g3
VVerapamil
p2003
sg5
VVerapami
p2004
sg7
g1909
sg9
VCC(C)C(CCCN(C)CCC1=CC(=C(C=C1)OC)OC)(C#N)C2=CC(=C(C=C2)OC)OC.Cl\u000a
p2005
sba(i__main__
Molecule
p2006
(dp2007
g3
VJuxtapid (lomitapide)
p2008
sg5
Vlomitapide
p2009
sg7
VHigh Cholesterol (Hyperlipidemia)
p2010
sg9
VC1CN(CCC1NC(=O)C2=CC=CC=C2C3=CC=C(C=C3)C(F)(F)F)CCCCC4(C5=CC=CC=C5C6=CC=CC=C64)C(=O)NCC(F)(F)F\u000a
p2011
sba(i__main__
Molecule
p2012
(dp2013
g3
VKynamro (mipomersen sodium)
p2014
sg5
Vmipomersen sodium
p2015
sg7
g2010
sg9
VCC1=CN(C(=O)NC1=O)C2CC(C(O2)COP(=O)(O)SC3CC(OC3COP(=O)(O)SC4CC(OC4COP(=O)(O)SC5CC(OC5COP(=O)(O)SC6CC(OC6COP(=O)(O)SC7CC(OC7COP(=O)(O)SC8CC(OC8COP(=O)(O)SC9CC(OC9COP(=O)(O)SC1C(OC(C1OCCOC)N1C=C(C(=NC1=O)N)C)COP(=O)(O)SC1C(OC(C1OCCOC)N1C=C(C(=O)NC1=O)C)COP(=O)(O)SC1C(OC(C1OCCOC)N1C=C(C(=NC1=O)N)C)COP(=O)(O)SC1C(OC(C1OCCOC)N1C=C(C(=NC1=O)N)C)COP(=O)(O)SC1C(OC(C1OCCOC)N1C=NC2=C1N=C(NC2=O)N)CO)N1C=NC2=C1N=CN=C2N)N1C=NC2=C1N=C(NC2=O)N)N1C=C(C(=O)NC1=O)C)N1C=C(C(=NC1=O)N)C)N1C=C(C(=O)NC1=O)C)N1C=NC2=C1N=C(NC2=O)N)N1C=C(C(=NC1=O)N)C)SP(=O)(O)OCC1C(CC(O1)N1C=C(C(=O)NC1=O)C)SP(=O)(O)OCC1C(CC(O1)N1C=C(C(=NC1=O)N)C)SP(=O)(O)OCC1C(C(C(O1)N1C=NC2=C1N=C(NC2=O)N)OCCOC)SP(=O)(O)OCC1C(C(C(O1)N1C=C(C(=NC1=O)N)C)OCCOC)SP(=O)(O)OCC1C(C(C(O1)N1C=NC2=C1N=CN=C2N)OCCOC)SP(=O)(O)OCC1C(C(C(O1)N1C=C(C(=NC1=O)N)C)OCCOC)SP(=O)(O)OCC1C(C(C(O1)N1C=C(C(=NC1=O)N)C)OCCOC)O\u000a
p2016
sba(i__main__
Molecule
p2017
(dp2018
g3
VLescol XL (fluvastatin sodium) tablet, extended release
p2019
sg5
Vfluvastatin sodium
p2020
sg7
g2010
sg9
VCC(C)N1C2=CC=CC=C2C(=C1C=CC(CC(CC(=O)O)O)O)C3=CC=C(C=C3)F\u000a
p2021
sba(i__main__
Molecule
p2022
(dp2023
g3
VPravachol (pravastatin sodium)
p2024
sg5
Vpravastatin sodium
p2025
sg7
g2010
sg9
VCCC(C)C(=O)OC1CC(C=C2C1C(C(C=C2)C)CCC(CC(CC(=O)[O-])O)O)O.[Na+]\u000a
p2026
sba(i__main__
Molecule
p2027
(dp2028
g3
VTricor (fenofibrate)
p2029
sg5
Vfenofibrate
p2030
sg7
g2010
sg9
VCC(C)OC(=O)C(C)(C)OC1=CC=C(C=C1)C(=O)C2=CC=C(C=C2)Cl\u000a
p2031
sba(i__main__
Molecule
p2032
(dp2033
g3
VLovenox (enoxaparin sodium) Injection
p2034
sg5
Venoxaparin sodium
p2035
sg7
VHip Replacement
p2036
sg9
VCC(=O)NC1C(C(C(OC1O)COS(=O)(=O)O)OC2C(C(C(C(O2)C(=O)O)OC3C(C(C(C(O3)CO)OC4C(C(C(C(O4)C(=O)O)O)O)OS(=O)(=O)O)OS(=O)(=O)O)NS(=O)(=O)O)O)OS(=O)(=O)O)O\u000a
p2037
sba(i__main__
Molecule
p2038
(dp2039
g3
VAptivus (tipranavir)
p2040
sg5
Vtipranavir
p2041
sg7
VHIV
p2042
sg9
VCCCC1(CC(=C(C(=O)O1)C(CC)C2=CC(=CC=C2)NS(=O)(=O)C3=NC=C(C=C3)C(F)(F)F)O)CCC4=CC=CC=C4\u000a
p2043
sba(i__main__
Molecule
p2044
(dp2045
g3
VDescovy (emtricitabine and tenofovir alafenamide)
p2046
sg5
Vemtricitabine and tenofovir alafenamide
p2047
sg7
g2042
sg9
VCC(C)OC(=O)C(C)NP(=O)(COC(C)CN1C=NC2=C1N=CN=C2N)OC3=CC=CC=C3.C1C(OC(S1)CO)N2C=C(C(=NC2=O)N)F\u000a
p2048
sba(i__main__
Molecule
p2049
(dp2050
g3
VEdurant (rilpivirine)
p2051
sg5
Vrilpivirine
p2052
sg7
g2042
sg9
VCC1=CC(=CC(=C1NC2=NC(=NC=C2)NC3=CC=C(C=C3)C#N)C)C=CC#N\u000a
p2053
sba(i__main__
Molecule
p2054
(dp2055
g3
VPrezcobix (darunavir and cobicistat)
p2056
sg5
Vdarunavir and cobicistat
p2057
sg7
g2042
sg9
VCC(C)CN(CC(C(CC1=CC=CC=C1)NC(=O)OC2COC3C2CCO3)O)S(=O)(=O)C4=CC=C(C=C4)N\u000a
p2058
sba(i__main__
Molecule
p2059
(dp2060
g3
VStribild (elvitegravir, cobicistat, emtricitabine, tenofovir disoproxil fumarate)
p2061
sg5
Velvitegravir, cobicistat, emtricitabine, tenofovir disoproxil fumarate
p2062
sg7
g2042
sg9
VCC(C)C1=NC(=CS1)CN(C)C(=O)NC(CCN2CCOCC2)C(=O)NC(CCC(CC3=CC=CC=C3)NC(=O)OCC4=CN=CS4)CC5=CC=CC=C5.CC(C)C(CO)N1C=C(C(=O)C2=CC(=C(C=C21)OC)CC3=C(C(=CC=C3)Cl)F)C(=O)O.CC(C)OC(=O)OCOP(=O)(COC(C)CN1C=NC2=C1N=CN=C2N)OCOC(=O)OC(C)C.C1C(OC(S1)CO)N2C=C(C(=NC2=O)N)F.C(=CC(=O)O)C(=O)O\u000a
p2063
sba(i__main__
Molecule
p2064
(dp2065
g3
VTivicay (dolutegravir)
p2066
sg5
Vdolutegravir
p2067
sg7
g2042
sg9
VCC1CCOC2N1C(=O)C3=C(C(=O)C(=CN3C2)C(=O)NCC4=C(C=C(C=C4)F)F)O\u000a
p2068
sba(i__main__
Molecule
p2069
(dp2070
g3
VTriumeq (abacavir, dolutegravir, and lamivudine)
p2071
sg5
Vabacavir, dolutegravir, and lamivudine
p2072
sg7
g2042
sg9
VCC1CCOC2N1C(=O)C3=C(C(=O)C(=CN3C2)C(=O)NCC4=C(C=C(C=C4)F)F)O.C1CC1NC2=NC(=NC3=C2N=CN3C4CC(C=C4)CO)N.C1C(OC(S1)CO)N2C=CC(=NC2=O)N\u000a
p2073
sba(i__main__
Molecule
p2074
(dp2075
g3
VZerit (stavudine)
p2076
sg5
Vstavudine
p2077
sg7
g2042
sg9
VCC1=CN(C(=O)NC1=O)C2C=CC(O2)CO\u000a
p2078
sba(i__main__
Molecule
p2079
(dp2080
g3
VDescovy (emtricitabine and tenofovir alafenamide)
p2081
sg5
Vemtricitabine and tenofovir alafenamide
p2082
sg7
VHIV (Pediatric)
p2083
sg9
VCC(C)OC(=O)C(C)NP(=O)(COC(C)CN1C=NC2=C1N=CN=C2N)OC3=CC=CC=C3.C1C(OC(S1)CO)N2C=C(C(=NC2=O)N)F\u000a
p2084
sba(i__main__
Molecule
p2085
(dp2086
g3
VEdurant (rilpivirine)
p2087
sg5
Vrilpivirine
p2088
sg7
g2083
sg9
VCC1=CC(=CC(=C1NC2=NC(=NC=C2)NC3=CC=C(C=C3)C#N)C)C=CC#N\u000a
p2089
sba(i__main__
Molecule
p2090
(dp2091
g3
VTivicay (dolutegravir)
p2092
sg5
Vdolutegravir
p2093
sg7
g2083
sg9
VCC1CCOC2N1C(=O)C3=C(C(=O)C(=CN3C2)C(=O)NCC4=C(C=C(C=C4)F)F)O\u000a
p2094
sba(i__main__
Molecule
p2095
(dp2096
g3
VAptivus (tipranavir)
p2097
sg5
Vtipranavir
p2098
sg7
VHIV Infections
p2099
sg9
VCCCC1(CC(=C(C(=O)O1)C(CC)C2=CC(=CC=C2)NS(=O)(=O)C3=NC=C(C=C3)C(F)(F)F)O)CCC4=CC=CC=C4\u000a
p2100
sba(i__main__
Molecule
p2101
(dp2102
g3
VCrixivan (Indinavir sulfate)
p2103
sg5
VIndinavir sulfate
p2104
sg7
g2099
sg9
VCC(C)(C)NC(=O)C1CN(CCN1CC(CC(CC2=CC=CC=C2)C(=O)NC3C(CC4=CC=CC=C34)O)O)CC5=CN=CC=C5.OS(=O)(=O)O\u000a
p2105
sba(i__main__
Molecule
p2106
(dp2107
g3
VDescovy (emtricitabine and tenofovir alafenamide)
p2108
sg5
Vemtricitabine and tenofovir alafenamide
p2109
sg7
g2099
sg9
VCC(C)OC(=O)C(C)NP(=O)(COC(C)CN1C=NC2=C1N=CN=C2N)OC3=CC=CC=C3.C1C(OC(S1)CO)N2C=C(C(=NC2=O)N)F\u000a
p2110
sba(i__main__
Molecule
p2111
(dp2112
g3
VEdurant (rilpivirine)
p2113
sg5
Vrilpivirine
p2114
sg7
g2099
sg9
VCC1=CC(=CC(=C1NC2=NC(=NC=C2)NC3=CC=C(C=C3)C#N)C)C=CC#N\u000a
p2115
sba(i__main__
Molecule
p2116
(dp2117
g3
VFortovase
p2118
sg5
VFortovas
p2119
sg7
g2099
sg9
VCC(C)(C)NC(=O)C1CC2CCCCC2CN1CC(C(CC3=CC=CC=C3)NC(=O)C(CC(=O)N)NC(=O)C4=NC5=CC=CC=C5C=C4)O\u000a
p2120
sba(i__main__
Molecule
p2121
(dp2122
g3
VFuzeon (enfuvirtide)
p2123
sg5
Venfuvirtide
p2124
sg7
g2099
sg9
VCCC(C)C(C(=O)NC(CCC(=O)O)C(=O)NC(CCC(=O)O)C(=O)NC(CO)C(=O)NC(CCC(=O)N)C(=O)NC(CC(=O)N)C(=O)NC(CCC(=O)N)C(=O)NC(CCC(=O)N)C(=O)NC(CCC(=O)O)C(=O)NC(CCCCN)C(=O)NC(CC(=O)N)C(=O)NC(CCC(=O)O)C(=O)NC(CCC(=O)N)C(=O)NC(CCC(=O)O)C(=O)NC(CC(C)C)C(=O)NC(CC(C)C)C(=O)NC(CCC(=O)O)C(=O)NC(CC(C)C)C(=O)NC(CC(=O)O)C(=O)NC(CCCCN)C(=O)NC(CC1=CNC2=CC=CC=C21)C(=O)NC(C)C(=O)NC(CO)C(=O)NC(CC(C)C)C(=O)NC(CC3=CNC4=CC=CC=C43)C(=O)NC(CC(=O)N)C(=O)NC(CC5=CNC6=CC=CC=C65)C(=O)NC(CC7=CC=CC=C7)C(=O)N)NC(=O)C(CC(C)C)NC(=O)C(CO)NC(=O)C(CC8=CNC=N8)NC(=O)C(C(C)CC)NC(=O)C(CC(C)C)NC(=O)C(CO)NC(=O)C(C(C)O)NC(=O)C(CC9=CC=C(C=C9)O)NC(=O)C\u000a
p2125
sba(i__main__
Molecule
p2126
(dp2127
g3
VIntelence (etravirine)
p2128
sg5
Vetravirine
p2129
sg7
g2099
sg9
VCC1=CC(=CC(=C1OC2=NC(=NC(=C2Br)N)NC3=CC=C(C=C3)C#N)C)C#N\u000a
p2130
sba(i__main__
Molecule
p2131
(dp2132
g3
VIsentress (raltegravir)
p2133
sg5
Vraltegravir
p2134
sg7
g2099
sg9
VCC1=NN=C(O1)C(=O)NC(C)(C)C2=NC(=C(C(=O)N2C)O)C(=O)NCC3=CC=C(C=C3)F\u000a
p2135
sba(i__main__
Molecule
p2136
(dp2137
g3
VLexiva (fosamprenavir calcium)
p2138
sg5
Vfosamprenavir calcium
p2139
sg7
g2099
sg9
VCC(C)CN(CC(C(CC1=CC=CC=C1)NC(=O)OC2CCOC2)OP(=O)([O-])[O-])S(=O)(=O)C3=CC=C(C=C3)N.[Ca+2]\u000a
p2140
sba(i__main__
Molecule
p2141
(dp2142
g3
VNorvir (ritonavir)
p2143
sg5
Vritonavir
p2144
sg7
g2099
sg9
VCC(C)C1=NC(=CS1)CN(C)C(=O)NC(C(C)C)C(=O)NC(CC2=CC=CC=C2)CC(C(CC3=CC=CC=C3)NC(=O)OCC4=CN=CS4)O\u000a
p2145
sba(i__main__
Molecule
p2146
(dp2147
g3
VPrezista (darunavir)
p2148
sg5
Vdarunavir
p2149
sg7
g2099
sg9
VCC(C)CN(CC(C(CC1=CC=CC=C1)NC(=O)OC2COC3C2CCO3)O)S(=O)(=O)C4=CC=C(C=C4)N\u000a
p2150
sba(i__main__
Molecule
p2151
(dp2152
g3
VReyataz (atazanavir sulfate)
p2153
sg5
Vatazanavir sulfate
p2154
sg7
g2099
sg9
VCC(C)(C)C(C(=O)NC(CC1=CC=CC=C1)C(CN(CC2=CC=C(C=C2)C3=CC=CC=N3)NC(=O)C(C(C)(C)C)NC(=O)OC)O)NC(=O)OC.OS(=O)(=O)O\u000a
p2155
sba(i__main__
Molecule
p2156
(dp2157
g3
VSelzentry (maraviroc)
p2158
sg5
Vmaraviroc
p2159
sg7
g2099
sg9
VCC1=NN=C(N1C2CC3CCC(C2)N3CCC(C4=CC=CC=C4)NC(=O)C5CCC(CC5)(F)F)C(C)C\u000a
p2160
sba(i__main__
Molecule
p2161
(dp2162
g3
VStribild (elvitegravir, cobicistat, emtricitabine, tenofovir disoproxil fumarate)
p2163
sg5
Velvitegravir, cobicistat, emtricitabine, tenofovir disoproxil fumarate
p2164
sg7
g2099
sg9
VCC(C)C1=NC(=CS1)CN(C)C(=O)NC(CCN2CCOCC2)C(=O)NC(CCC(CC3=CC=CC=C3)NC(=O)OCC4=CN=CS4)CC5=CC=CC=C5.CC(C)C(CO)N1C=C(C(=O)C2=CC(=C(C=C21)OC)CC3=C(C(=CC=C3)Cl)F)C(=O)O.CC(C)OC(=O)OCOP(=O)(COC(C)CN1C=NC2=C1N=CN=C2N)OCOC(=O)OC(C)C.C1C(OC(S1)CO)N2C=C(C(=NC2=O)N)F.C(=CC(=O)O)C(=O)O\u000a
p2165
sba(i__main__
Molecule
p2166
(dp2167
g3
VSustiva
p2168
sg5
VSustiv
p2169
sg7
g2099
sg9
VC1CC1C#CC2(C3=C(C=CC(=C3)Cl)NC(=O)O2)C(F)(F)F\u000a
p2170
sba(i__main__
Molecule
p2171
(dp2172
g3
VVidex (didanosine)
p2173
sg5
Vdidanosine
p2174
sg7
g2099
sg9
VC1CC(OC1CO)N2C=NC3=C2NC=NC3=O\u000a
p2175
sba(i__main__
Molecule
p2176
(dp2177
g3
VVIRACEPT (nelfinavir mesylate)
p2178
sg5
Vnelfinavir mesylate
p2179
sg7
g2099
sg9
VCC1=C(C=CC=C1O)C(=O)NC(CSC2=CC=CC=C2)C(CN3CC4CCCCC4CC3C(=O)NC(C)(C)C)O.CS(=O)(=O)O\u000a
p2180
sba(i__main__
Molecule
p2181
(dp2182
g3
VViramune (nevirapine)
p2183
sg5
Vnevirapine
p2184
sg7
g2099
sg9
VCC1=C2C(=NC=C1)N(C3=C(C=CC=N3)C(=O)N2)C4CC4\u000a
p2185
sba(i__main__
Molecule
p2186
(dp2187
g3
VViread (tenofovir disoproxil fumarate)
p2188
sg5
Vtenofovir disoproxil fumarate
p2189
sg7
g2099
sg9
VCC(CN1C=NC2=C1N=CN=C2N)OCP(=O)(O)O\u000a
p2190
sba(i__main__
Molecule
p2191
(dp2192
g3
VZerit (stavudine)
p2193
sg5
Vstavudine
p2194
sg7
g2099
sg9
VCC1=CN(C(=O)NC1=O)C2C=CC(O2)CO\u000a
p2195
sba(i__main__
Molecule
p2196
(dp2197
g3
VCombivir
p2198
sg5
VCombivi
p2199
sg7
VHIV/AIDS
p2200
sg9
VCC1=CN(C(=O)NC1=O)C2CC(C(O2)COP(=O)(O)OP(=O)(O)OP(=O)(O)O)N=[N+]=[N-]\u000a
p2201
sba(i__main__
Molecule
p2202
(dp2203
g3
VEdurant (rilpivirine)
p2204
sg5
Vrilpivirine
p2205
sg7
g2200
sg9
VCC1=CC(=CC(=C1NC2=NC(=NC=C2)NC3=CC=C(C=C3)C#N)C)C=CC#N\u000a
p2206
sba(i__main__
Molecule
p2207
(dp2208
g3
VEpivir (lamivudine)
p2209
sg5
Vlamivudine
p2210
sg7
g2200
sg9
VC1C(OC(S1)CO)N2C=CC(=NC2=O)N\u000a
p2211
sba(i__main__
Molecule
p2212
(dp2213
g3
VInvirase (saquinavir)
p2214
sg5
Vsaquinavir
p2215
sg7
g2200
sg9
VCC(C)(C)NC(=O)C1CC2CCCCC2CN1CC(C(CC3=CC=CC=C3)NC(=O)C(CC(=O)N)NC(=O)C4=NC5=CC=CC=C5C=C4)O.CS(=O)(=O)O\u000a
p2216
sba(i__main__
Molecule
p2217
(dp2218
g3
VMyalept (metreleptin for injection)
p2219
sg5
Vmetreleptin for injection
p2220
sg7
g2200
sg9
VO\u000a
p2221
sba(i__main__
Molecule
p2222
(dp2223
g3
VPrezcobix (darunavir and cobicistat)
p2224
sg5
Vdarunavir and cobicistat
p2225
sg7
g2200
sg9
VCC(C)CN(CC(C(CC1=CC=CC=C1)NC(=O)OC2COC3C2CCO3)O)S(=O)(=O)C4=CC=C(C=C4)N\u000a
p2226
sba(i__main__
Molecule
p2227
(dp2228
g3
VStribild (elvitegravir, cobicistat, emtricitabine, tenofovir disoproxil fumarate)
p2229
sg5
Velvitegravir, cobicistat, emtricitabine, tenofovir disoproxil fumarate
p2230
sg7
g2200
sg9
VCC(C)C1=NC(=CS1)CN(C)C(=O)NC(CCN2CCOCC2)C(=O)NC(CCC(CC3=CC=CC=C3)NC(=O)OCC4=CN=CS4)CC5=CC=CC=C5.CC(C)C(CO)N1C=C(C(=O)C2=CC(=C(C=C21)OC)CC3=C(C(=CC=C3)Cl)F)C(=O)O.CC(C)OC(=O)OCOP(=O)(COC(C)CN1C=NC2=C1N=CN=C2N)OCOC(=O)OC(C)C.C1C(OC(S1)CO)N2C=C(C(=NC2=O)N)F.C(=CC(=O)O)C(=O)O\u000a
p2231
sba(i__main__
Molecule
p2232
(dp2233
g3
VAdcetris (brentuximab vedotin)
p2234
sg5
Vbrentuximab vedotin
p2235
sg7
VHodgkin's Disease
p2236
sg9
VCCC(C)C(C(CC(=O)N1CCCC1C(C(C)C(=O)NC(C)C(C2=CC=CC=C2)O)OC)OC)N(C)C(=O)C(C(C)C)NC(=O)C(C(C)C)NC\u000a
p2237
sba(i__main__
Molecule
p2238
(dp2239
g3
VAveed (testosterone undecanoate) injection
p2240
sg5
Vtestosterone undecanoate
p2241
sg7
VHormone Deficiencies
p2242
sg9
VCCCCCCCCCCC(=O)OC1CCC2C1(CCC3C2CCC4=CC(=O)CCC34C)C\u000a
p2243
sba(i__main__
Molecule
p2244
(dp2245
g3
VVogelxo (testosterone) gel
p2246
sg5
Vtestosterone
p2247
sg7
g2242
sg9
VCC12CCC3C(C1CCC2O)CCC4=CC(=O)CCC34C\u000a
p2248
sba(i__main__
Molecule
p2249
(dp2250
g3
VActivella (Estradiol/Norethindrone Acetate) Tablets
p2251
sg5
VEstradiol/Norethindrone Acetate
p2252
sg7
VHormone Replacement Therapy
p2253
sg9
VCC12CCC3C(C1CCC2(C#C)O)CCC4=CC(=O)CCC34.CC12CCC3C(C1CCC2(C#C)O)CCC4=C3C=CC(=C4)O\u000a
p2254
sba(i__main__
Molecule
p2255
(dp2256
g3
VAveed (testosterone undecanoate) injection
p2257
sg5
Vtestosterone undecanoate
p2258
sg7
g2253
sg9
VCCCCCCCCCCC(=O)OC1CCC2C1(CCC3C2CCC4=CC(=O)CCC34C)C\u000a
p2259
sba(i__main__
Molecule
p2260
(dp2261
g3
VPrempro
p2262
sg5
VPrempr
p2263
sg7
g2253
sg9
VCC12CCC3C(C1CCC2=O)CCC4=C3C=CC(=C4)OS(=O)(=O)[O-].[Na+]\u000a
p2264
sba(i__main__
Molecule
p2265
(dp2266
g3
VVogelxo (testosterone) gel
p2267
sg5
Vtestosterone
p2268
sg7
g2253
sg9
VCC12CCC3C(C1CCC2O)CCC4=CC(=O)CCC34C\u000a
p2269
sba(i__main__
Molecule
p2270
(dp2271
g3
VAustedo (deutetrabenazine) 
p2272
sg5
Vdeutetrabenazine
p2273
sg7
VHuntington's Disease
p2274
sg9
VCC(C)CC1CN2CCC3=CC(=C(C=C3C2CC1=O)OC)OC\u000a
p2275
sba(i__main__
Molecule
p2276
(dp2277
g3
VParsabiv (etelcalcetide)
p2278
sg5
Vetelcalcetide
p2279
sg7
VHyperparathyroidism
p2280
sg9
VCC(C(=O)NC(CCCN=C(N)N)C(=O)N)NC(=O)C(CCCN=C(N)N)NC(=O)C(CCCN=C(N)N)NC(=O)C(CCCN=C(N)N)NC(=O)C(C)NC(=O)C(CSSCC(C(=O)O)N)NC(=O)C\u000a
p2281
sba(i__main__
Molecule
p2282
(dp2283
g3
VAveed (testosterone undecanoate) injection
p2284
sg5
Vtestosterone undecanoate
p2285
sg7
VHypogonadism
p2286
sg9
VCCCCCCCCCCC(=O)OC1CCC2C1(CCC3C2CCC4=CC(=O)CCC34C)C\u000a
p2287
sba(i__main__
Molecule
p2288
(dp2289
g3
VNatesto, (testosterone) nasal gel
p2290
sg5
Vtestosterone
p2291
sg7
g2286
sg9
VCC12CCC3C(C1CCC2O)CCC4=CC(=O)CCC34C\u000a
p2292
sba(i__main__
Molecule
p2293
(dp2294
g3
VEsbriet (pirfenidone)
p2295
sg5
Vpirfenidone
p2296
sg7
VIdiopathic Pulmonary Fibrosis
p2297
sg9
VCC1=CN(C(=O)C=C1)C2=CC=CC=C2\u000a
p2298
sba(i__main__
Molecule
p2299
(dp2300
g3
VOfev (nintedanib)
p2301
sg5
Vnintedanib
p2302
sg7
g2297
sg9
VCN1CCN(CC1)CC(=O)N(C)C2=CC=C(C=C2)NC(=C3C4=C(C=C(C=C4)C(=O)OC)NC3=O)C5=CC=CC=C5\u000a
p2303
sba(i__main__
Molecule
p2304
(dp2305
g3
VCaverject (alprostadil)
p2306
sg5
Valprostadil
p2307
sg7
VImpotence
p2308
sg9
VCCCCCC(C=CC1C(CC(=O)C1CCCCCCC(=O)O)O)O\u000a
p2309
sba(i__main__
Molecule
p2310
(dp2311
g3
VMuse
p2312
sg5
VMus
p2313
sg7
g2308
sg9
VCC1=CC(=O)OC2=C1C=CC(=C2)OC3(CC(C(C(O3)C(C(CO)O)O)NC(=O)C)O)C(=O)O\u000a
p2314
sba(i__main__
Molecule
p2315
(dp2316
g3
VViagra
p2317
sg5
VViagr
p2318
sg7
g2308
sg9
VCCCC1=NN(C2=C1NC(=NC2=O)C3=C(C=CC(=C3)S(=O)(=O)N4CCN(CC4)C)OCC)C\u000a
p2319
sba(i__main__
Molecule
p2320
(dp2321
g3
VFollistim (TM) (follitropin beta for injection)
p2322
sg5
VTM
p2323
sg7
VInfertility
p2324
sg9
VCC(C)(C)CC(C)(C)C1=CC=C(C=C1)OCCOCCOCCOCCOCCOCCOCCO\u000a
p2325
sba(i__main__
Molecule
p2326
(dp2327
g3
VREPRONEX(menotropins for injection, USP)
p2328
sg5
Vmenotropins for injection, USP
p2329
sg7
g2324
sg9
VO\u000a
p2330
sba(i__main__
Molecule
p2331
(dp2332
g3
VLinzess (linaclotide)
p2333
sg5
Vlinaclotide
p2334
sg7
VInflammatory Bowel Disease
p2335
sg9
VCC1C(=O)NC2CSSCC3C(=O)NC(C(=O)NC(C(=O)NC(CSSCC(NC(=O)CNC(=O)C(NC2=O)C(C)O)C(=O)NC(CC4=CC=C(C=C4)O)C(=O)O)C(=O)NC(CSSCC(C(=O)N3)N)C(=O)NC(C(=O)N5CCCC5C(=O)N1)CC(=O)N)CC6=CC=C(C=C6)O)CCC(=O)O\u000a
p2336
sba(i__main__
Molecule
p2337
(dp2338
g3
VTamiflu  capsule
p2339
sg5
VTamiflu  capsul
p2340
sg7
VInfluenza
p2341
sg9
VCCC(CC)OC1C=C(CC(C1NC(=O)C)N)C(=O)OCC.OP(=O)(O)O\u000a
p2342
sba(i__main__
Molecule
p2343
(dp2344
g3
VBelsomra (suvorexant)
p2345
sg5
Vsuvorexant
p2346
sg7
VInsomnia
p2347
sg9
VCC1CCN(CCN1C(=O)C2=C(C=CC(=C2)C)N3N=CC=N3)C4=NC5=C(O4)C=CC(=C5)Cl\u000a
p2348
sba(i__main__
Molecule
p2349
(dp2350
g3
VSilenor (doxepin)
p2351
sg5
Vdoxepin
p2352
sg7
g2347
sg9
VCN(C)CCC=C1C2=CC=CC=C2COC3=CC=CC=C31\u000a
p2353
sba(i__main__
Molecule
p2354
(dp2355
g3
VZerbaxa (ceftolozane + tazobactam) 
p2356
sg5
Vceftolozane + tazobactam
p2357
sg7
VIntra-Abdominal Infections
p2358
sg9
VCC1(C(N2C(S1(=O)=O)CC2=O)C(=O)O)CN3C=CN=N3.CC(C)(C(=O)O)ON=C(C1=NSC(=N1)N)C(=O)NC2C3N(C2=O)C(=C(CS3)C[N+]4=CC(=C(N4C)N)NC(=O)NCCN)C(=O)[O-]\u000a
p2359
sba(i__main__
Molecule
p2360
(dp2361
g3
VFerriprox (deferiprone)
p2362
sg5
Vdeferiprone
p2363
sg7
VIron Overload (Hemachromatosis)
p2364
sg9
VCC1=C(C(=O)C=CN1C)O\u000a
p2365
sba(i__main__
Molecule
p2366
(dp2367
g3
VLinzess (linaclotide)
p2368
sg5
Vlinaclotide
p2369
sg7
VIrritable Bowel Syndrome (IBS)
p2370
sg9
VCC1C(=O)NC2CSSCC3C(=O)NC(C(=O)NC(C(=O)NC(CSSCC(NC(=O)CNC(=O)C(NC2=O)C(C)O)C(=O)NC(CC4=CC=C(C=C4)O)C(=O)O)C(=O)NC(CSSCC(C(=O)N3)N)C(=O)NC(C(=O)N5CCCC5C(=O)N1)CC(=O)N)CC6=CC=C(C=C6)O)CCC(=O)O\u000a
p2371
sba(i__main__
Molecule
p2372
(dp2373
g3
VLotronex (alosetron HCL) Tablets
p2374
sg5
Valosetron HCL
p2375
sg7
g2370
sg9
VCC1=C(N=CN1)CN2CCC3=C(C2=O)C4=CC=CC=C4N3C\u000a
p2376
sba(i__main__
Molecule
p2377
(dp2378
g3
VViberzi (eluxadoline)
p2379
sg5
Veluxadoline
p2380
sg7
g2370
sg9
VCC1=CC(=CC(=C1CC(C(=O)N(CC2=CC(=C(C=C2)OC)C(=O)O)C(C)C3=NC=C(N3)C4=CC=CC=C4)N)C)C(=O)N\u000a
p2381
sba(i__main__
Molecule
p2382
(dp2383
g3
VXifaxan (rifaximin)
p2384
sg5
Vrifaximin
p2385
sg7
g2370
sg9
VCC1C=CC=C(C(=O)NC2=C(C3=C(C4=C(C(=C3O)C)OC(C4=O)(OC=CC(C(C(C(C(C(C1O)C)O)C)OC(=O)C)C)OC)C)C5=C2N6C=CC(=CC6=N5)C)O)C\u000a
p2386
sba(i__main__
Molecule
p2387
(dp2388
g3
VZelnorm (tegaserod maleate) Tablets
p2389
sg5
Vtegaserod maleate
p2390
sg7
g2370
sg9
VCCCCCN=C(N)NNC=C1C=NC2=C1C=C(C=C2)OC\u000a
p2391
sba(i__main__
Molecule
p2392
(dp2393
g3
VAmeluz (aminolevulinic acid hydrochloride)
p2394
sg5
Vaminolevulinic acid hydrochloride
p2395
sg7
VKeratoses
p2396
sg9
VC(CC(=O)O)C(=O)CN.Cl\u000a
p2397
sba(i__main__
Molecule
p2398
(dp2399
g3
VEskata (hydrogen peroxide)
p2400
sg5
Vhydrogen peroxide
p2401
sg7
g2396
sg9
VOO\u000a
p2402
sba(i__main__
Molecule
p2403
(dp2404
g3
VPicato (ingenol mebutate) gel
p2405
sg5
Vingenol mebutate
p2406
sg7
g2396
sg9
VCC=C(C)C(=O)OC1C(=CC23C1(C(C(=CC(C2=O)C4C(C4(C)C)CC3C)CO)O)O)C\u000a
p2407
sba(i__main__
Molecule
p2408
(dp2409
g3
VZyclara (imiquimod)
p2410
sg5
Vimiquimod
p2411
sg7
g2396
sg9
VCC(C)CN1C=NC2=C1C3=CC=CC=C3N=C2N\u000a
p2412
sba(i__main__
Molecule
p2413
(dp2414
g3
VInlyta (axitinib)
p2415
sg5
Vaxitinib
p2416
sg7
VKidney Cancer
p2417
sg9
VCNC(=O)C1=CC=CC=C1SC2=CC3=C(C=C2)C(=NN3)C=CC4=CC=CC=N4\u000a
p2418
sba(i__main__
Molecule
p2419
(dp2420
g3
VLenvima (lenvatinib)
p2421
sg5
Vlenvatinib
p2422
sg7
g2417
sg9
VCOC1=CC2=NC=CC(=C2C=C1C(=O)N)OC3=CC(=C(C=C3)NC(=O)NC4CC4)Cl\u000a
p2423
sba(i__main__
Molecule
p2424
(dp2425
g3
VAuryxia (Ferric citrate)
p2426
sg5
VFerric citrate
p2427
sg7
VKidney Disease
p2428
sg9
VC(C(=O)[O-])C(CC(=O)[O-])(C(=O)[O-])O.N.[Fe+3]\u000a
p2429
sba(i__main__
Molecule
p2430
(dp2431
g3
VParsabiv (etelcalcetide)
p2432
sg5
Vetelcalcetide
p2433
sg7
g2428
sg9
VCC(C(=O)NC(CCCN=C(N)N)C(=O)N)NC(=O)C(CCCN=C(N)N)NC(=O)C(CCCN=C(N)N)NC(=O)C(CCCN=C(N)N)NC(=O)C(C)NC(=O)C(CSSCC(C(=O)O)N)NC(=O)C\u000a
p2434
sba(i__main__
Molecule
p2435
(dp2436
g3
VProcysbi (cysteamine bitartrate)
p2437
sg5
Vcysteamine bitartrate
p2438
sg7
g2428
sg9
VC(CS)N.C(C(C(=O)O)O)(C(=O)O)O\u000a
p2439
sba(i__main__
Molecule
p2440
(dp2441
g3
VRayaldee (calcifediol) 
p2442
sg5
Vcalcifediol
p2443
sg7
g2428
sg9
VCC(CCCC(C)(C)O)C1CCC2C1(CCCC2=CC=C3CC(CCC3=C)O)C\u000a
p2444
sba(i__main__
Molecule
p2445
(dp2446
g3
VRenagel (sevelamer hydrochloride)
p2447
sg5
Vsevelamer hydrochloride
p2448
sg7
g2428
sg9
VC=CCN.C1C(O1)CCl.Cl\u000a
p2449
sba(i__main__
Molecule
p2450
(dp2451
g3
VRenvela (sevelamer carbonate)
p2452
sg5
Vsevelamer carbonate
p2453
sg7
g2428
sg9
VC=CCN.C1C(O1)CCl.C(=O)(O)O\u000a
p2454
sba(i__main__
Molecule
p2455
(dp2456
g3
VAuryxia (Ferric citrate)
p2457
sg5
VFerric citrate
p2458
sg7
VKidney Failure
p2459
sg9
VC(C(=O)[O-])C(CC(=O)[O-])(C(=O)[O-])O.N.[Fe+3]\u000a
p2460
sba(i__main__
Molecule
p2461
(dp2462
g3
VPrograf
p2463
sg5
VProgra
p2464
sg7
VKidney Transplantation
p2465
sg9
VC1=CC(=C(C(=C1)F)C(=O)NC(=O)NC2=CC(=C(C=C2Cl)OC(C(C(F)(F)F)F)(F)F)Cl)F\u000a
p2466
sba(i__main__
Molecule
p2467
(dp2468
g3
VRapamune (sirolimus) Tablets
p2469
sg5
Vsirolimus
p2470
sg7
g2465
sg9
VCC1CCC2CC(C(=CC=CC=CC(CC(C(=O)C(C(C(=CC(C(=O)CC(OC(=O)C3CCCCN3C(=O)C(=O)C1(O2)O)C(C)CC4CCC(C(C4)OC)O)C)C)O)OC)C)C)C)OC\u000a
p2471
sba(i__main__
Molecule
p2472
(dp2473
g3
VZortress (everolimus)
p2474
sg5
Veverolimus
p2475
sg7
g2465
sg9
VCC1CCC2CC(C(=CC=CC=CC(CC(C(=O)C(C(C(=CC(C(=O)CC(OC(=O)C3CCCCN3C(=O)C(=O)C1(O2)O)C(C)CC4CCC(C(C4)OC)OCCO)C)C)O)OC)C)C)C)OC\u000a
p2476
sba(i__main__
Molecule
p2477
(dp2478
g3
VBosulif (bosutinib)
p2479
sg5
Vbosutinib
p2480
sg7
VLeukemia
p2481
sg9
VCN1CCN(CC1)CCCOC2=C(C=C3C(=C2)N=CC(=C3NC4=CC(=C(C=C4Cl)Cl)OC)C#N)OC\u000a
p2482
sba(i__main__
Molecule
p2483
(dp2484
g3
VImbruvica (ibrutinib)
p2485
sg5
Vibrutinib
p2486
sg7
g2481
sg9
VC=CC(=O)N1CCCC(C1)N2C3=C(C(=N2)C4=CC=C(C=C4)OC5=CC=CC=C5)C(=NC=N3)N\u000a
p2487
sba(i__main__
Molecule
p2488
(dp2489
g3
VImbruvica (ibrutinib)
p2490
sg5
Vibrutinib
p2491
sg7
g2481
sg9
VC=CC(=O)N1CCCC(C1)N2C3=C(C(=N2)C4=CC=C(C=C4)OC5=CC=CC=C5)C(=NC=N3)N\u000a
p2492
sba(i__main__
Molecule
p2493
(dp2494
g3
VDefitelio (defibrotide sodium)
p2495
sg5
Vdefibrotide sodium
p2496
sg7
VLiver Disease
p2497
sg9
VC1=CC=C(C=C1)C2=CC=CC=C2[O-].[Na+]\u000a
p2498
sba(i__main__
Molecule
p2499
(dp2500
g3
VOcaliva (obeticholic acid)
p2501
sg5
Vobeticholic acid
p2502
sg7
g2497
sg9
VCCC1C2CC(CCC2(C3CCC4(C(C3C1O)CCC4C(C)CCC(=O)O)C)C)O\u000a
p2503
sba(i__main__
Molecule
p2504
(dp2505
g3
VProAmatine (midodrine)
p2506
sg5
Vmidodrine
p2507
sg7
VLow Blood Pressure (Hypotension)
p2508
sg9
VCOC1=CC(=C(C=C1)OC)C(CNC(=O)CN)O\u000a
p2509
sba(i__main__
Molecule
p2510
(dp2511
g3
VVogelxo (testosterone) gel
p2512
sg5
Vtestosterone
p2513
sg7
VLow Testosterone
p2514
sg9
VCC12CCC3C(C1CCC2O)CCC4=CC(=O)CCC34C\u000a
p2515
sba(i__main__
Molecule
p2516
(dp2517
g3
VAlecensa (alectinib)
p2518
sg5
Valectinib
p2519
sg7
VLung Cancer
p2520
sg9
VCCC1=C(C=C2C(=C1)C(=O)C3=C(C2(C)C)NC4=C3C=CC(=C4)C#N)N5CCC(CC5)N6CCOCC6\u000a
p2521
sba(i__main__
Molecule
p2522
(dp2523
g3
VAlunbrig (brigatinib)
p2524
sg5
Vbrigatinib
p2525
sg7
g2520
sg9
VCN1CCN(CC1)C2CCN(CC2)C3=CC(=C(C=C3)NC4=NC=C(C(=N4)NC5=CC=CC=C5P(=O)(C)C)Cl)OC\u000a
p2526
sba(i__main__
Molecule
p2527
(dp2528
g3
VGemzar (gemcitabine HCL)
p2529
sg5
Vgemcitabine HCL
p2530
sg7
g2520
sg9
VC1=CN(C(=O)N=C1N)C2C(C(C(O2)CO)O)(F)F\u000a
p2531
sba(i__main__
Molecule
p2532
(dp2533
g3
VHycamtin (topotecan hydrochloride)
p2534
sg5
Vtopotecan hydrochloride
p2535
sg7
g2520
sg9
VCCC1(C2=C(COC1=O)C(=O)N3CC4=C(C3=C2)N=C5C=CC(=C(C5=C4)CN(C)C)O)O.Cl\u000a
p2536
sba(i__main__
Molecule
p2537
(dp2538
g3
VIressa (gefitinib)
p2539
sg5
Vgefitinib
p2540
sg7
g2520
sg9
VCOC1=C(C=C2C(=C1)N=CN=C2NC3=CC(=C(C=C3)F)Cl)OCCCN4CCOCC4\u000a
p2541
sba(i__main__
Molecule
p2542
(dp2543
g3
VPhotofrin
p2544
sg5
VPhotofri
p2545
sg7
g2520
sg9
VCCC1=C2C=C3C(=C(C(=CC4=NC(=CC5=NC(=CC(=C1C)N2)C(=C5CCC(=O)O)C)C(=C4C)CCC(=O)O)N3)C(C)O)C.[Na+]\u000a
p2546
sba(i__main__
Molecule
p2547
(dp2548
g3
VXalkori (crizotinib)
p2549
sg5
Vcrizotinib
p2550
sg7
g2520
sg9
VCC(C1=C(C=CC(=C1Cl)F)Cl)OC2=C(N=CC(=C2)C3=CN(N=C3)C4CCNCC4)N\u000a
p2551
sba(i__main__
Molecule
p2552
(dp2553
g3
VZykadia (ceritinib)
p2554
sg5
Vceritinib
p2555
sg7
g2520
sg9
VCC1=CC(=C(C=C1C2CCNCC2)OC(C)C)NC3=NC=C(C(=N3)NC4=CC=CC=C4S(=O)(=O)C(C)C)Cl\u000a
p2556
sba(i__main__
Molecule
p2557
(dp2558
g3
VArranon (nelarabine)
p2559
sg5
Vnelarabine
p2560
sg7
VLymphocytic Leukemia, Acute
p2561
sg9
VCOC1=NC(=NC2=C1N=CN2C3C(C(C(O3)CO)O)O)N\u000a
p2562
sba(i__main__
Molecule
p2563
(dp2564
g3
VClolar (clofarabine)
p2565
sg5
Vclofarabine
p2566
sg7
g2561
sg9
VC1=NC2=C(N1C3C(C(C(O3)CO)O)F)N=C(N=C2N)Cl\u000a
p2567
sba(i__main__
Molecule
p2568
(dp2569
g3
VIclusig (ponatinib)
p2570
sg5
Vponatinib
p2571
sg7
g2561
sg9
VCC1=C(C=C(C=C1)C(=O)NC2=CC(=C(C=C2)CN3CCN(CC3)C)C(F)(F)F)C#CC4=CN=C5N4N=CC=C5\u000a
p2572
sba(i__main__
Molecule
p2573
(dp2574
g3
VAdcetris (brentuximab vedotin)
p2575
sg5
Vbrentuximab vedotin
p2576
sg7
VLymphoma
p2577
sg9
VCCC(C)C(C(CC(=O)N1CCCC1C(C(C)C(=O)NC(C)C(C2=CC=CC=C2)O)OC)OC)N(C)C(=O)C(C(C)C)NC(=O)C(C(C)C)NC\u000a
p2578
sba(i__main__
Molecule
p2579
(dp2580
g3
VRevlimid (lenalidomide)
p2581
sg5
Vlenalidomide
p2582
sg7
g2577
sg9
VC1CC(=O)NC(=O)C1N2CC3=C(C2=O)C=CC=C3N\u000a
p2583
sba(i__main__
Molecule
p2584
(dp2585
g3
VRevlimid (lenalidomide)
p2586
sg5
Vlenalidomide
p2587
sg7
g2577
sg9
VC1CC(=O)NC(=O)C1N2CC3=C(C2=O)C=CC=C3N\u000a
p2588
sba(i__main__
Molecule
p2589
(dp2590
g3
VKanuma (sebelipase alfa)
p2591
sg5
Vsebelipase alfa
p2592
sg7
VLysosomal Acid Lipase Deficiency  (LAL)
p2593
sg9
VC1=CC(=CC(=C1)Cl)C(F)(F)F\u000a
p2594
sba(i__main__
Molecule
p2595
(dp2596
g3
VZithromax (azithromycin)
p2597
sg5
Vazithromycin
p2598
sg7
VMAC Infection (Mycobacterium Avium Complex)
p2599
sg9
VCCC1C(C(C(N(CC(CC(C(C(C(C(C(=O)O1)C)OC2CC(C(C(O2)C)O)(C)OC)C)OC3C(C(CC(O3)C)N(C)C)O)(C)O)C)C)C)O)(C)O\u000a
p2600
sba(i__main__
Molecule
p2601
(dp2602
g3
VAveed (testosterone undecanoate) injection
p2603
sg5
Vtestosterone undecanoate
p2604
sg7
VMale Hormonal Deficiencies/Abnormalities
p2605
sg9
VCCCCCCCCCCC(=O)OC1CCC2C1(CCC3C2CCC4=CC(=O)CCC34C)C\u000a
p2606
sba(i__main__
Molecule
p2607
(dp2608
g3
VNatesto, (testosterone) nasal gel
p2609
sg5
Vtestosterone
p2610
sg7
g2605
sg9
VCC12CCC3C(C1CCC2O)CCC4=CC(=O)CCC34C\u000a
p2611
sba(i__main__
Molecule
p2612
(dp2613
g3
VVogelxo (testosterone) gel
p2614
sg5
Vtestosterone
p2615
sg7
g2605
sg9
VCC12CCC3C(C1CCC2O)CCC4=CC(=O)CCC34C\u000a
p2616
sba(i__main__
Molecule
p2617
(dp2618
g3
VLithobid (Lithium Carbonate)
p2619
sg5
VLithium Carbonate
p2620
sg7
VManic Disorders
p2621
sg9
V[Li+].[Li+].C(=O)([O-])[O-]\u000a
p2622
sba(i__main__
Molecule
p2623
(dp2624
g3
VCalquence (acalabrutinib)
p2625
sg5
Vacalabrutinib
p2626
sg7
VMantle Cell Lymphoma
p2627
sg9
VCC#CC(=O)N1CCCC1C2=NC(=C3N2C=CN=C3N)C4=CC=C(C=C4)C(=O)NC5=CC=CC=N5\u000a
p2628
sba(i__main__
Molecule
p2629
(dp2630
g3
VImbruvica (ibrutinib)
p2631
sg5
Vibrutinib
p2632
sg7
g2627
sg9
VC=CC(=O)N1CCCC(C1)N2C3=C(C(=N2)C4=CC=C(C=C4)OC5=CC=CC=C5)C(=NC=N3)N\u000a
p2633
sba(i__main__
Molecule
p2634
(dp2635
g3
VRevlimid (lenalidomide)
p2636
sg5
Vlenalidomide
p2637
sg7
g2627
sg9
VC1CC(=O)NC(=O)C1N2CC3=C(C2=O)C=CC=C3N\u000a
p2638
sba(i__main__
Molecule
p2639
(dp2640
g3
VRevlimid (lenalidomide)
p2641
sg5
Vlenalidomide
p2642
sg7
g2627
sg9
VC1CC(=O)NC(=O)C1N2CC3=C(C2=O)C=CC=C3N\u000a
p2643
sba(i__main__
Molecule
p2644
(dp2645
g3
VCotellic (cobimetinib) 
p2646
sg5
Vcobimetinib
p2647
sg7
VMelanoma
p2648
sg9
VC1CCNC(C1)C2(CN(C2)C(=O)C3=C(C(=C(C=C3)F)F)NC4=C(C=C(C=C4)I)F)O\u000a
p2649
sba(i__main__
Molecule
p2650
(dp2651
g3
VMekinist (trametinib)
p2652
sg5
Vtrametinib
p2653
sg7
g2648
sg9
VCC1=C2C(=C(N(C1=O)C)NC3=C(C=C(C=C3)I)F)C(=O)N(C(=O)N2C4=CC(=CC=C4)NC(=O)C)C5CC5\u000a
p2654
sba(i__main__
Molecule
p2655
(dp2656
g3
VTafinlar (dabrafenib)
p2657
sg5
Vdabrafenib
p2658
sg7
g2648
sg9
VCC(C)(C)C1=NC(=C(S1)C2=NC(=NC=C2)N)C3=C(C(=CC=C3)NS(=O)(=O)C4=C(C=CC=C4F)F)F\u000a
p2659
sba(i__main__
Molecule
p2660
(dp2661
g3
VZelboraf (vemurafenib)
p2662
sg5
Vvemurafenib
p2663
sg7
g2648
sg9
VCCCS(=O)(=O)NC1=C(C(=C(C=C1)F)C(=O)C2=CNC3=NC=C(C=C23)C4=CC=C(C=C4)Cl)F\u000a
p2664
sba(i__main__
Molecule
p2665
(dp2666
g3
VMerrem I.V. (meropenem)
p2667
sg5
Vmeropenem
p2668
sg7
VMeningitis
p2669
sg9
VCC1C2C(C(=O)N2C(=C1SC3CC(NC3)C(=O)N(C)C)C(=O)O)C(C)O\u000a
p2670
sba(i__main__
Molecule
p2671
(dp2672
g3
VActivella (Estradiol/Norethindrone Acetate) Tablets
p2673
sg5
VEstradiol/Norethindrone Acetate
p2674
sg7
VMenopause
p2675
sg9
VCC12CCC3C(C1CCC2(C#C)O)CCC4=CC(=O)CCC34.CC12CCC3C(C1CCC2(C#C)O)CCC4=C3C=CC(=C4)O\u000a
p2676
sba(i__main__
Molecule
p2677
(dp2678
g3
VEvamist (estradiol)
p2679
sg5
Vestradiol
p2680
sg7
g2675
sg9
VCC12CCC3C(C1CCC2O)CCC4=C3C=CC(=C4)O\u000a
p2681
sba(i__main__
Molecule
p2682
(dp2683
g3
VOsphena (ospemifene)
p2684
sg5
Vospemifene
p2685
sg7
g2675
sg9
VC1=CC=C(C=C1)C(=C(C2=CC=CC=C2)C3=CC=C(C=C3)OCCO)CCCl\u000a
p2686
sba(i__main__
Molecule
p2687
(dp2688
g3
VPremarin (conjugated estrogens)
p2689
sg5
Vconjugated estrogens
p2690
sg7
g2675
sg9
VCC12CCC3C(C1CCC2=O)CCC4=C3C=CC(=C4)OS(=O)(=O)[O-].[Na+]\u000a
p2691
sba(i__main__
Molecule
p2692
(dp2693
g3
VCystaran (cysteamine hydrochloride)
p2694
sg5
Vcysteamine hydrochloride
p2695
sg7
VMetabolic Disorders
p2696
sg9
VC(CS)N.Cl\u000a
p2697
sba(i__main__
Molecule
p2698
(dp2699
g3
VElelyso (taliglucerase alfa)
p2700
sg5
Vtaliglucerase alfa
p2701
sg7
g2696
sg9
VC1=CC(=CC(=C1)Cl)C(F)(F)F\u000a
p2702
sba(i__main__
Molecule
p2703
(dp2704
g3
VMepsevii (vestronidase alfa-vjbk) 
p2705
sg5
Vvestronidase alfa-vjbk
p2706
sg7
g2696
sg9
VC1=CC(=CC(=C1)Cl)C(F)(F)F\u000a
p2707
sba(i__main__
Molecule
p2708
(dp2709
g3
VProcysbi (cysteamine bitartrate)
p2710
sg5
Vcysteamine bitartrate
p2711
sg7
g2696
sg9
VC(CS)N.C(C(C(=O)O)O)(C(=O)O)O\u000a
p2712
sba(i__main__
Molecule
p2713
(dp2714
g3
VVimizim (elosulfase alfa)
p2715
sg5
Velosulfase alfa
p2716
sg7
g2696
sg9
VC1=CC(=CC(=C1)Cl)C(F)(F)F\u000a
p2717
sba(i__main__
Molecule
p2718
(dp2719
g3
VStivarga (regorafenib)
p2720
sg5
Vregorafenib
p2721
sg7
VMetastatic Cancer
p2722
sg9
VCNC(=O)C1=NC=CC(=C1)OC2=CC(=C(C=C2)NC(=O)NC3=CC(=C(C=C3)Cl)C(F)(F)F)F\u000a
p2723
sba(i__main__
Molecule
p2724
(dp2725
g3
VCotellic (cobimetinib) 
p2726
sg5
Vcobimetinib
p2727
sg7
VMetastatic Melanoma
p2728
sg9
VC1CCNC(C1)C2(CN(C2)C(=O)C3=C(C(=C(C=C3)F)F)NC4=C(C=C(C=C4)I)F)O\u000a
p2729
sba(i__main__
Molecule
p2730
(dp2731
g3
VMekinist (trametinib)
p2732
sg5
Vtrametinib
p2733
sg7
g2728
sg9
VCC1=C2C(=C(N(C1=O)C)NC3=C(C=C(C=C3)I)F)C(=O)N(C(=O)N2C4=CC(=CC=C4)NC(=O)C)C5CC5\u000a
p2734
sba(i__main__
Molecule
p2735
(dp2736
g3
VTafinlar (dabrafenib)
p2737
sg5
Vdabrafenib
p2738
sg7
g2728
sg9
VCC(C)(C)C1=NC(=C(S1)C2=NC(=NC=C2)N)C3=C(C(=CC=C3)NS(=O)(=O)C4=C(C=CC=C4F)F)F\u000a
p2739
sba(i__main__
Molecule
p2740
(dp2741
g3
VAmerge
p2742
sg5
VAmerg
p2743
sg7
VMigraine and Cluster Headaches
p2744
sg9
VCNS(=O)(=O)CCC1=CC2=C(C=C1)NC=C2C3CCN(CC3)C.Cl\u000a
p2745
sba(i__main__
Molecule
p2746
(dp2747
g3
VAxert (almotriptan malate) tablets
p2748
sg5
Valmotriptan malate
p2749
sg7
g2744
sg9
VCN(C)CCC1=CNC2=C1C=C(C=C2)CS(=O)(=O)N3CCCC3.C(C(C(=O)O)O)C(=O)O\u000a
p2750
sba(i__main__
Molecule
p2751
(dp2752
g3
VDepakote (divalproex sodium)
p2753
sg5
Vdivalproex sodium
p2754
sg7
g2744
sg9
VCCCC(CCC)C(=O)O.CCCC(CCC)C(=O)[O-].[Na+]\u000a
p2755
sba(i__main__
Molecule
p2756
(dp2757
g3
VDepakote ER (divalproex sodium)
p2758
sg5
Vdivalproex sodium
p2759
sg7
g2744
sg9
VCCCC(CCC)C(=O)O.CCCC(CCC)C(=O)[O-].[Na+]\u000a
p2760
sba(i__main__
Molecule
p2761
(dp2762
g3
VFrova (frovatriptan succinate)
p2763
sg5
Vfrovatriptan succinate
p2764
sg7
g2744
sg9
VCNC1CCC2=C(C1)C3=C(N2)C=CC(=C3)C(=O)N\u000a
p2765
sba(i__main__
Molecule
p2766
(dp2767
g3
VImitrex (sumatriptan) injection and tablets
p2768
sg5
Vsumatriptan
p2769
sg7
g2744
sg9
VCNS(=O)(=O)CC1=CC2=C(C=C1)NC=C2CCN(C)C\u000a
p2770
sba(i__main__
Molecule
p2771
(dp2772
g3
VImitrex (sumatriptan) nasal spray
p2773
sg5
Vsumatriptan
p2774
sg7
g2744
sg9
VCNS(=O)(=O)CC1=CC2=C(C=C1)NC=C2CCN(C)C\u000a
p2775
sba(i__main__
Molecule
p2776
(dp2777
g3
VMigranal
p2778
sg5
VMigrana
p2779
sg7
g2744
sg9
VCC1(C(=O)N2C(C(=O)N3CCCC3C2(O1)O)CC4=CC=CC=C4)NC(=O)C5CC6C(CC7=CNC8=CC=CC6=C78)N(C5)C\u000a
p2780
sba(i__main__
Molecule
p2781
(dp2782
g3
VRelpax (eletriptan hydrobromide)
p2783
sg5
Veletriptan hydrobromide
p2784
sg7
g2744
sg9
VCN1CCCC1CC2=CNC3=C2C=C(C=C3)CCS(=O)(=O)C4=CC=CC=C4\u000a
p2785
sba(i__main__
Molecule
p2786
(dp2787
g3
VZomig (zolmitriptan)
p2788
sg5
Vzolmitriptan
p2789
sg7
g2744
sg9
VCN(C)CCC1=CNC2=C1C=C(C=C2)CC3COC(=O)N3\u000a
p2790
sba(i__main__
Molecule
p2791
(dp2792
g3
VZomig (zolmitriptan)
p2793
sg5
Vzolmitriptan
p2794
sg7
g2744
sg9
VCN(C)CCC1=CNC2=C1C=C(C=C2)CC3COC(=O)N3\u000a
p2795
sba(i__main__
Molecule
p2796
(dp2797
g3
VZoloft (sertraline HCl)
p2798
sg5
Vsertraline HCl
p2799
sg7
VMood Disorders
p2800
sg9
VCNC1CCC(C2=CC=CC=C12)C3=CC(=C(C=C3)Cl)Cl.Cl\u000a
p2801
sba(i__main__
Molecule
p2802
(dp2803
g3
VFarydak (panobinostat)
p2804
sg5
Vpanobinostat
p2805
sg7
VMultiple Myeloma
p2806
sg9
VCC1=C(C2=CC=CC=C2N1)CCNCC3=CC=C(C=C3)C=CC(=O)NO\u000a
p2807
sba(i__main__
Molecule
p2808
(dp2809
g3
VKyprolis (carfilzomib)
p2810
sg5
Vcarfilzomib
p2811
sg7
g2806
sg9
VCC(C)CC(C(=O)C1(CO1)C)NC(=O)C(CC2=CC=CC=C2)NC(=O)C(CC(C)C)NC(=O)C(CCC3=CC=CC=C3)NC(=O)CN4CCOCC4\u000a
p2812
sba(i__main__
Molecule
p2813
(dp2814
g3
VNinlaro (ixazomib)
p2815
sg5
Vixazomib
p2816
sg7
g2806
sg9
VB(C(CC(C)C)NC(=O)CNC(=O)C1=C(C=CC(=C1)Cl)Cl)(O)O\u000a
p2817
sba(i__main__
Molecule
p2818
(dp2819
g3
VPomalyst (pomalidomide)
p2820
sg5
Vpomalidomide
p2821
sg7
g2806
sg9
VC1CC(=O)NC(=O)C1N2C(=O)C3=C(C2=O)C(=CC=C3)N\u000a
p2822
sba(i__main__
Molecule
p2823
(dp2824
g3
VAmpyra (dalfampridine)
p2825
sg5
Vdalfampridine
p2826
sg7
VMultiple Sclerosis
p2827
sg9
VC1=CN=CC=C1N\u000a
p2828
sba(i__main__
Molecule
p2829
(dp2830
g3
VAubagio (teriflunomide)
p2831
sg5
Vteriflunomide
p2832
sg7
g2827
sg9
VCC(=C(C#N)C(=O)NC1=CC=C(C=C1)C(F)(F)F)O\u000a
p2833
sba(i__main__
Molecule
p2834
(dp2835
g3
VCopaxone
p2836
sg5
VCopaxon
p2837
sg7
g2827
sg9
VCC(C(=O)O)N.CC(=O)O.C1=CC(=CC=C1CC(C(=O)O)N)O.C(CCN)CC(C(=O)O)N.C(CC(=O)O)C(C(=O)O)N\u000a
p2838
sba(i__main__
Molecule
p2839
(dp2840
g3
VGilenya (fingolimod)
p2841
sg5
Vfingolimod
p2842
sg7
g2827
sg9
VCCCCCCCCC1=CC=C(C=C1)CCC(CO)(CO)N.Cl\u000a
p2843
sba(i__main__
Molecule
p2844
(dp2845
g3
VNovantrone (mitoxantrone hydrochloride)
p2846
sg5
Vmitoxantrone hydrochloride
p2847
sg7
g2827
sg9
VC1=CC(=C2C(=C1NCCNCCO)C(=O)C3=C(C=CC(=C3C2=O)O)O)NCCNCCO.Cl.Cl\u000a
p2848
sba(i__main__
Molecule
p2849
(dp2850
g3
VTecfidera (dimethyl fumarate)
p2851
sg5
Vdimethyl fumarate
p2852
sg7
g2827
sg9
VCOC(=O)C=CC(=O)OC\u000a
p2853
sba(i__main__
Molecule
p2854
(dp2855
g3
VEmflaza (deflazacort)
p2856
sg5
Vdeflazacort
p2857
sg7
VMuscular Dystrophy
p2858
sg9
VCC1=NC2(C(O1)CC3C2(CC(C4C3CCC5=CC(=O)C=CC45C)O)C)C(=O)COC(=O)C\u000a
p2859
sba(i__main__
Molecule
p2860
(dp2861
g3
VCresemba (isavuconazonium sulfate) 
p2862
sg5
Visavuconazonium sulfate
p2863
sg7
VMycosis Fungoides
p2864
sg9
VCC(C1=NC(=CS1)C2=CC=C(C=C2)C#N)C(CN3C=[N+](C=N3)C(C)OC(=O)N(C)C4=C(C=CC=N4)COC(=O)CNC)(C5=C(C=CC(=C5)F)F)O\u000a
p2865
sba(i__main__
Molecule
p2866
(dp2867
g3
VJakafi (ruxolitinib)
p2868
sg5
Vruxolitinib
p2869
sg7
VMyelofibrosis
p2870
sg9
VC1CCC(C1)C(CC#N)N2C=C(C=N2)C3=C4C=CNC4=NC=N3\u000a
p2871
sba(i__main__
Molecule
p2872
(dp2873
g3
VZontivity (vorapaxar)
p2874
sg5
Vvorapaxar
p2875
sg7
VMyocardial Ischemia
p2876
sg9
VCCOC(=O)NC1CCC2C(C1)CC3C(C2C=CC4=NC=C(C=C4)C5=CC(=CC=C5)F)C(OC3=O)C\u000a
p2877
sba(i__main__
Molecule
p2878
(dp2879
g3
VAllegra-D
p2880
sg5
VAllegra-
p2881
sg7
VNasal Obstruction
p2882
sg9
VCC(C)(C1=CC=C(C=C1)C(CCCN2CCC(CC2)C(C3=CC=CC=C3)(C4=CC=CC=C4)O)O)C(=O)O.Cl\u000a
p2883
sba(i__main__
Molecule
p2884
(dp2885
g3
VBreathe Right
p2886
sg5
VBreathe Righ
p2887
sg7
g2882
sg9
VCC(C)(C)NCC(C1=CC(=C(C=C1)O)CO)O\u000a
p2888
sba(i__main__
Molecule
p2889
(dp2890
g3
VAfinitor (everolimus)
p2891
sg5
Veverolimus
p2892
sg7
VNeuroendocrine Carcinoma
p2893
sg9
VCC1CCC2CC(C(=CC=CC=CC(CC(C(=O)C(C(C(=CC(C(=O)CC(OC(=O)C3CCCCN3C(=O)C(=O)C1(O2)O)C(C)CC4CCC(C(C4)OC)OCCO)C)C)O)OC)C)C)C)OC\u000a
p2894
sba(i__main__
Molecule
p2895
(dp2896
g3
VSutent (sunitinib malate)
p2897
sg5
Vsunitinib malate
p2898
sg7
g2893
sg9
VCCN(CC)CCNC(=O)C1=C(NC(=C1C)C=C2C3=C(C=CC(=C3)F)NC2=O)C\u000a
p2899
sba(i__main__
Molecule
p2900
(dp2901
g3
VXermelo (telotristat ethyl)
p2902
sg5
Vtelotristat ethyl
p2903
sg7
g2893
sg9
VCCOC(=O)C(CC1=CC=C(C=C1)C2=CC(=NC(=N2)N)OC(C3=C(C=C(C=C3)Cl)N4C=CC(=N4)C)C(F)(F)F)N\u000a
p2904
sba(i__main__
Molecule
p2905
(dp2906
g3
VNorthera (droxidopa)
p2907
sg5
Vdroxidopa
p2908
sg7
VNeurologic Disorders
p2909
sg9
VC1=CC(=C(C=C1C(C(C(=O)O)N)O)O)O\u000a
p2910
sba(i__main__
Molecule
p2911
(dp2912
g3
VLyrica (pregabalin)
p2913
sg5
Vpregabalin
p2914
sg7
VNeuropathy
p2915
sg9
VCC(C)CC(CC(=O)O)CN\u000a
p2916
sba(i__main__
Molecule
p2917
(dp2918
g3
VLyrica (pregabalin)
p2919
sg5
Vpregabalin
p2920
sg7
g2915
sg9
VCC(C)CC(CC(=O)O)CN\u000a
p2921
sba(i__main__
Molecule
p2922
(dp2923
g3
VBeleodaq (belinostat)
p2924
sg5
Vbelinostat
p2925
sg7
VNon-Hodgkin's Lymphoma
p2926
sg9
VC1=CC=C(C=C1)NS(=O)(=O)C2=CC=CC(=C2)C=CC(=O)NO\u000a
p2927
sba(i__main__
Molecule
p2928
(dp2929
g3
VRevlimid (lenalidomide)
p2930
sg5
Vlenalidomide
p2931
sg7
g2926
sg9
VC1CC(=O)NC(=O)C1N2CC3=C(C2=O)C=CC=C3N\u000a
p2932
sba(i__main__
Molecule
p2933
(dp2934
g3
VRevlimid (lenalidomide)
p2935
sg5
Vlenalidomide
p2936
sg7
g2926
sg9
VC1CC(=O)NC(=O)C1N2CC3=C(C2=O)C=CC=C3N\u000a
p2937
sba(i__main__
Molecule
p2938
(dp2939
g3
VRituxan
p2940
sg5
VRituxa
p2941
sg7
g2926
sg9
VCC12C(C(CC(O1)N3C4=C(CCCC4)C5=C6C(=C7C8=C(N2C7=C53)CCCC8)CNC6=O)NC)OC\u000a
p2942
sba(i__main__
Molecule
p2943
(dp2944
g3
VAlecensa (alectinib)
p2945
sg5
Valectinib
p2946
sg7
VNon-Small Cell Lung Cancer
p2947
sg9
VCCC1=C(C=C2C(=C1)C(=O)C3=C(C2(C)C)NC4=C3C=CC(=C4)C#N)N5CCC(CC5)N6CCOCC6\u000a
p2948
sba(i__main__
Molecule
p2949
(dp2950
g3
VAlunbrig (brigatinib)
p2951
sg5
Vbrigatinib
p2952
sg7
g2947
sg9
VCN1CCN(CC1)C2CCN(CC2)C3=CC(=C(C=C3)NC4=NC=C(C(=N4)NC5=CC=CC=C5P(=O)(C)C)Cl)OC\u000a
p2953
sba(i__main__
Molecule
p2954
(dp2955
g3
VGilotrif (afatinib)
p2956
sg5
Vafatinib
p2957
sg7
g2947
sg9
VCN(C)CC=CC(=O)NC1=C(C=C2C(=C1)C(=NC=N2)NC3=CC(=C(C=C3)F)Cl)OC4CCOC4\u000a
p2958
sba(i__main__
Molecule
p2959
(dp2960
g3
VHycamtin (topotecan hydrochloride)
p2961
sg5
Vtopotecan hydrochloride
p2962
sg7
g2947
sg9
VCCC1(C2=C(COC1=O)C(=O)N3CC4=C(C3=C2)N=C5C=CC(=C(C5=C4)CN(C)C)O)O.Cl\u000a
p2963
sba(i__main__
Molecule
p2964
(dp2965
g3
VIressa (gefitinib)
p2966
sg5
Vgefitinib
p2967
sg7
g2947
sg9
VCOC1=C(C=C2C(=C1)N=CN=C2NC3=CC(=C(C=C3)F)Cl)OCCCN4CCOCC4\u000a
p2968
sba(i__main__
Molecule
p2969
(dp2970
g3
VPhotofrin
p2971
sg5
VPhotofri
p2972
sg7
g2947
sg9
VCCC1=C2C=C3C(=C(C(=CC4=NC(=CC5=NC(=CC(=C1C)N2)C(=C5CCC(=O)O)C)C(=C4C)CCC(=O)O)N3)C(C)O)C.[Na+]\u000a
p2973
sba(i__main__
Molecule
p2974
(dp2975
g3
VTagrisso (osimertinib)
p2976
sg5
Vosimertinib
p2977
sg7
g2947
sg9
VCN1C=C(C2=CC=CC=C21)C3=NC(=NC=C3)NC4=C(C=C(C(=C4)NC(=O)C=C)N(C)CCN(C)C)OC\u000a
p2978
sba(i__main__
Molecule
p2979
(dp2980
g3
VZykadia (ceritinib)
p2981
sg5
Vceritinib
p2982
sg7
g2947
sg9
VCC1=CC(=C(C=C1C2CCNCC2)OC(C)C)NC3=NC=C(C(=N3)NC4=CC=CC=C4S(=O)(=O)C(C)C)Cl\u000a
p2983
sba(i__main__
Molecule
p2984
(dp2985
g3
VBelviq (lorcaserin hydrochloride)
p2986
sg5
Vlorcaserin hydrochloride
p2987
sg7
VObesity
p2988
sg9
VCC1CNCCC2=C1C=C(C=C2)Cl.Cl\u000a
p2989
sba(i__main__
Molecule
p2990
(dp2991
g3
VMERIDIA
p2992
sg5
VMERIDI
p2993
sg7
g2988
sg9
VCC(C)CC(C1(CCC1)C2=CC=C(C=C2)Cl)N(C)C\u000a
p2994
sba(i__main__
Molecule
p2995
(dp2996
g3
VRedux (dexfenfluramine hydrochloride)
p2997
sg5
Vdexfenfluramine hydrochloride
p2998
sg7
g2988
sg9
VCCNC(C)CC1=CC(=CC=C1)C(F)(F)F.Cl\u000a
p2999
sba(i__main__
Molecule
p3000
(dp3001
g3
VLUVOX  (fluvoxamine maleate)
p3002
sg5
Vfluvoxamine maleate
p3003
sg7
VObsessive-Compulsive Disorder
p3004
sg9
VCOCCCCC(=NOCCN)C1=CC=C(C=C1)C(F)(F)F.C(=CC(=O)O)C(=O)O\u000a
p3005
sba(i__main__
Molecule
p3006
(dp3007
g3
VPaxil (paroxetine hydrochloride)
p3008
sg5
Vparoxetine hydrochloride
p3009
sg7
g3004
sg9
VC1CNCC(C1C2=CC=C(C=C2)F)COC3=CC4=C(C=C3)OCO4.Cl\u000a
p3010
sba(i__main__
Molecule
p3011
(dp3012
g3
VZoloft (sertraline HCl)
p3013
sg5
Vsertraline HCl
p3014
sg7
g3004
sg9
VCNC1CCC(C2=CC=CC=C12)C3=CC(=C(C=C3)Cl)Cl.Cl\u000a
p3015
sba(i__main__
Molecule
p3016
(dp3017
g3
VAlphagan (brimonidine)
p3018
sg5
Vbrimonidine
p3019
sg7
VOcular Hypertension
p3020
sg9
VC1CN=C(N1)NC2=C(C3=NC=CN=C3C=C2)Br\u000a
p3021
sba(i__main__
Molecule
p3022
(dp3023
g3
VBetaxon
p3024
sg5
VBetaxo
p3025
sg7
g3020
sg9
VCC(C)NCC(COC1=CC=C(C=C1)CCOCC2CC2)O.Cl\u000a
p3026
sba(i__main__
Molecule
p3027
(dp3028
g3
VCosopt
p3029
sg5
VCosop
p3030
sg7
g3020
sg9
VCCNC1CC(S(=O)(=O)C2=C1C=C(S2)S(=O)(=O)N)C.Cl\u000a
p3031
sba(i__main__
Molecule
p3032
(dp3033
g3
VBextra
p3034
sg5
VBextr
p3035
sg7
VOsteoarthritis
p3036
sg9
VC1=CC=C2C(=C1)C=CC(=O)C2=NNC3=CC=C(C=C3)S(=O)(=O)[O-].[Na+]\u000a
p3037
sba(i__main__
Molecule
p3038
(dp3039
g3
VEtodolac
p3040
sg5
VEtodola
p3041
sg7
g3036
sg9
VCCC1=CC=CC2=C1NC3=C2CCOC3(CC)CC(=O)O\u000a
p3042
sba(i__main__
Molecule
p3043
(dp3044
g3
VEtodolac
p3045
sg5
VEtodola
p3046
sg7
g3036
sg9
VCCC1=CC=CC2=C1NC3=C2CCOC3(CC)CC(=O)O\u000a
p3047
sba(i__main__
Molecule
p3048
(dp3049
g3
VMobic (meloxicam) Tablets
p3050
sg5
Vmeloxicam
p3051
sg7
g3036
sg9
VCC1=CN=C(S1)NC(=O)C2=C(C3=CC=CC=C3S(=O)(=O)N2C)O\u000a
p3052
sba(i__main__
Molecule
p3053
(dp3054
g3
VNaprelan (naproxen sodium)
p3055
sg5
Vnaproxen sodium
p3056
sg7
g3036
sg9
VCC(C1=CC2=C(C=C1)C=C(C=C2)OC)C(=O)O\u000a
p3057
sba(i__main__
Molecule
p3058
(dp3059
g3
VVivlodex (meloxicam) 
p3060
sg5
Vmeloxicam
p3061
sg7
g3036
sg9
VCC1=CN=C(S1)NC(=O)C2=C(C3=CC=CC=C3S(=O)(=O)N2C)O\u000a
p3062
sba(i__main__
Molecule
p3063
(dp3064
g3
VActivella (Estradiol/Norethindrone Acetate) Tablets
p3065
sg5
VEstradiol/Norethindrone Acetate
p3066
sg7
VOsteoporosis
p3067
sg9
VCC12CCC3C(C1CCC2(C#C)O)CCC4=CC(=O)CCC34.CC12CCC3C(C1CCC2(C#C)O)CCC4=C3C=CC(=C4)O\u000a
p3068
sba(i__main__
Molecule
p3069
(dp3070
g3
VBoniva (ibandronate)
p3071
sg5
Vibandronate
p3072
sg7
g3067
sg9
VCCCCCN(C)CCC(O)(P(=O)(O)O)P(=O)(O)O\u000a
p3073
sba(i__main__
Molecule
p3074
(dp3075
g3
VEstratab (.3 mg )
p3076
sg5
V.3 mg 
p3077
sg7
g3067
sg9
VCCN1CCC(C(C1)C)N(C)C(=O)C2CCNC2.Cl.Cl\u000a
p3078
sba(i__main__
Molecule
p3079
(dp3080
g3
VEvista (raloxifene hydrochloride)
p3081
sg5
Vraloxifene hydrochloride
p3082
sg7
g3067
sg9
VC1CCN(CC1)CCOC2=CC=C(C=C2)C(=O)C3=C(SC4=C3C=CC(=C4)O)C5=CC=C(C=C5)O.Cl\u000a
p3083
sba(i__main__
Molecule
p3084
(dp3085
g3
VEvista (raloxifene hydrochloride)
p3086
sg5
Vraloxifene hydrochloride
p3087
sg7
g3067
sg9
VC1CCN(CC1)CCOC2=CC=C(C=C2)C(=O)C3=C(SC4=C3C=CC(=C4)O)C5=CC=C(C=C5)O.Cl\u000a
p3088
sba(i__main__
Molecule
p3089
(dp3090
g3
VEvista (raloxifene hydrochloride)
p3091
sg5
Vraloxifene hydrochloride
p3092
sg7
g3067
sg9
VC1CCN(CC1)CCOC2=CC=C(C=C2)C(=O)C3=C(SC4=C3C=CC(=C4)O)C5=CC=C(C=C5)O.Cl\u000a
p3093
sba(i__main__
Molecule
p3094
(dp3095
g3
VForteo (teriparatide)
p3096
sg5
Vteriparatide
p3097
sg7
g3067
sg9
VCCC(C)C(C(=O)NC(CCC(=O)N)C(=O)NC(CC(C)C)C(=O)NC(CCSC)C(=O)NC(CC1=CN=CN1)C(=O)NC(CC(=O)N)C(=O)NC(CC(C)C)C(=O)NCC(=O)NC(CCCCN)C(=O)NC(CC2=CN=CN2)C(=O)NC(CC(C)C)C(=O)NC(CC(=O)N)C(=O)NC(CO)C(=O)NC(CCSC)C(=O)NC(CCC(=O)O)C(=O)NC(CCCNC(=N)N)C(=O)NC(C(C)C)C(=O)NC(CCC(=O)O)C(=O)NC(CC3=CNC4=CC=CC=C43)C(=O)NC(CC(C)C)C(=O)NC(CCCNC(=N)N)C(=O)NC(CCCCN)C(=O)NC(CCCCN)C(=O)NC(CC(C)C)C(=O)NC(CCC(=O)N)C(=O)NC(CC(=O)O)C(=O)NC(C(C)C)C(=O)NC(CC5=CN=CN5)C(=O)NC(CC(=O)N)C(=O)NC(CC6=CC=CC=C6)C(=O)O)NC(=O)C(CCC(=O)O)NC(=O)C(CO)NC(=O)C(C(C)C)NC(=O)C(CO)N.CC(=O)O\u000a
p3098
sba(i__main__
Molecule
p3099
(dp3100
g3
VFosamax (alendronate sodium)
p3101
sg5
Valendronate sodium
p3102
sg7
g3067
sg9
VC(CC(O)(P(=O)(O)O)P(=O)(O)[O-])CN.[Na+]\u000a
p3103
sba(i__main__
Molecule
p3104
(dp3105
g3
VMiacalcin (calcitonin-salmon) Nasal Spray
p3106
sg5
Vcalcitonin-salmon
p3107
sg7
g3067
sg9
VCC(C)CC1C(=O)NC(C(=O)NC(C(=O)NC(CSSCC(C(=O)NC(C(=O)NC(C(=O)N1)CC(=O)N)CO)N)C(=O)NC(C(C)C)C(=O)NC(CC(C)C)C(=O)NCC(=O)NC(CCCCN)C(=O)NC(CC(C)C)C(=O)NC(CO)C(=O)NC(CCC(=O)N)C(=O)NC(CCC(=O)O)C(=O)NC(CC(C)C)C(=O)NC(CC2=CN=CN2)C(=O)NC(CCCCN)C(=O)NC(CC(C)C)C(=O)NC(CCC(=O)N)C(=O)NC(C(C)O)C(=O)NC(CC3=CC=C(C=C3)O)C(=O)N4CCCC4C(=O)NC(CCCNC(=N)N)C(=O)NC(C(C)O)C(=O)NC(CC(=O)N)C(=O)NC(C(C)O)C(=O)NCC(=O)NC(CO)C(=O)NCC(=O)NC(C(C)O)C(=O)N5CCCC5C(=O)N)C(C)O)CO\u000a
p3108
sba(i__main__
Molecule
p3109
(dp3110
g3
VPremarin (conjugated estrogens)
p3111
sg5
Vconjugated estrogens
p3112
sg7
g3067
sg9
VCC12CCC3C(C1CCC2=O)CCC4=C3C=CC(=C4)OS(=O)(=O)[O-].[Na+]\u000a
p3113
sba(i__main__
Molecule
p3114
(dp3115
g3
VReclast (zoledronic acid)
p3116
sg5
Vzoledronic acid
p3117
sg7
g3067
sg9
VC1=CN(C=N1)CC(O)(P(=O)(O)O)P(=O)(O)O\u000a
p3118
sba(i__main__
Molecule
p3119
(dp3120
g3
VRocephin
p3121
sg5
VRocephi
p3122
sg7
VOtitis Media
p3123
sg9
VCN1C(=NC(=O)C(=O)N1)SCC2=C(N3C(C(C3=O)NC(=O)C(=NOC)C4=CSC(=N4)N)SC2)C(=O)O\u000a
p3124
sba(i__main__
Molecule
p3125
(dp3126
g3
VEthyol (amifostine)
p3127
sg5
Vamifostine
p3128
sg7
VOvarian Cancer
p3129
sg9
VC(CN)CNCCSP(=O)(O)O\u000a
p3130
sba(i__main__
Molecule
p3131
(dp3132
g3
VHycamtin (topotecan hydrochloride)
p3133
sg5
Vtopotecan hydrochloride
p3134
sg7
g3129
sg9
VCCC1(C2=C(COC1=O)C(=O)N3CC4=C(C3=C2)N=C5C=CC(=C(C5=C4)CN(C)C)O)O.Cl\u000a
p3135
sba(i__main__
Molecule
p3136
(dp3137
g3
VLynparza (olaparib)
p3138
sg5
Volaparib
p3139
sg7
g3129
sg9
VC1CC1C(=O)N2CCN(CC2)C(=O)C3=C(C=CC(=C3)CC4=NNC(=O)C5=CC=CC=C54)F\u000a
p3140
sba(i__main__
Molecule
p3141
(dp3142
g3
VRubraca (rucaparib)
p3143
sg5
Vrucaparib
p3144
sg7
g3129
sg9
VCNCC1=CC=C(C=C1)C2=C3CCNC(=O)C4=CC(=CC(=C34)N2)F\u000a
p3145
sba(i__main__
Molecule
p3146
(dp3147
g3
VZejula (niraparib)
p3148
sg5
Vniraparib
p3149
sg7
g3129
sg9
VC1CC(CNC1)C2=CC=C(C=C2)N3C=C4C=CC=C(C4=N3)C(=O)N\u000a
p3150
sba(i__main__
Molecule
p3151
(dp3152
g3
VActonel
p3153
sg5
VActone
p3154
sg7
VPaget's Disease
p3155
sg9
VC(C1C(C(C(C(=O)O1)O)O)O)O\u000a
p3156
sba(i__main__
Molecule
p3157
(dp3158
g3
VFosamax (alendronate sodium)
p3159
sg5
Valendronate sodium
p3160
sg7
g3155
sg9
VC(CC(O)(P(=O)(O)O)P(=O)(O)[O-])CN.[Na+]\u000a
p3161
sba(i__main__
Molecule
p3162
(dp3163
g3
VReclast (zoledronic acid)
p3164
sg5
Vzoledronic acid
p3165
sg7
g3155
sg9
VC1=CN(C=N1)CC(O)(P(=O)(O)O)P(=O)(O)O\u000a
p3166
sba(i__main__
Molecule
p3167
(dp3168
g3
VSkelid (tiludronate disodium)
p3169
sg5
Vtiludronate disodium
p3170
sg7
g3155
sg9
VC1=CC(=CC=C1SC(P(=O)(O)[O-])P(=O)(O)[O-])Cl.[Na+].[Na+]\u000a
p3171
sba(i__main__
Molecule
p3172
(dp3173
g3
VBelbuca (buprenorphine) 
p3174
sg5
Vbuprenorphine
p3175
sg7
VPain
p3176
sg9
VCC(C)(C)C(C)(C1CC23CCC1(C4C25CCN(C3CC6=C5C(=C(C=C6)O)O4)CC7CC7)OC)O\u000a
p3177
sba(i__main__
Molecule
p3178
(dp3179
g3
VBromfenac
p3180
sg5
VBromfena
p3181
sg7
g3176
sg9
VC1=CC(=C(C(=C1)CC(=O)O)N)C(=O)C2=CC=C(C=C2)Br\u000a
p3182
sba(i__main__
Molecule
p3183
(dp3184
g3
VDyloject (diclofenac sodium) Injection
p3185
sg5
Vdiclofenac sodium
p3186
sg7
g3176
sg9
VC1=CC=C(C(=C1)CC(=O)[O-])NC2=C(C=CC=C2Cl)Cl.[Na+]\u000a
p3187
sba(i__main__
Molecule
p3188
(dp3189
g3
VExalgo (hydromorphone hydrochloride) extended release
p3190
sg5
Vhydromorphone hydrochloride
p3191
sg7
g3176
sg9
VCN1CCC23C4C1CC5=C2C(=C(C=C5)O)OC3C(=O)CC4.Cl\u000a
p3192
sba(i__main__
Molecule
p3193
(dp3194
g3
VOxecta (oxycodone HCl)
p3195
sg5
Voxycodone HCl
p3196
sg7
g3176
sg9
VCN1CCC23C4C(=O)CCC2(C1CC5=C3C(=C(C=C5)OC)O4)O\u000a
p3197
sba(i__main__
Molecule
p3198
(dp3199
g3
VSprix (ketorolac tromethamine)
p3200
sg5
Vketorolac tromethamine
p3201
sg7
g3176
sg9
VC1CN2C(=CC=C2C(=O)C3=CC=CC=C3)C1C(=O)O.C(C(CO)(CO)N)O\u000a
p3202
sba(i__main__
Molecule
p3203
(dp3204
g3
VTivorbex (indomethacin)
p3205
sg5
Vindomethacin
p3206
sg7
g3176
sg9
VCC1=C(C2=C(N1C(=O)C3=CC=C(C=C3)Cl)C=CC(=C2)OC)CC(=O)O\u000a
p3207
sba(i__main__
Molecule
p3208
(dp3209
g3
VZipsor (diclofenac potassium)
p3210
sg5
Vdiclofenac potassium
p3211
sg7
g3176
sg9
VC1=CC=C(C(=C1)CC(=O)[O-])NC2=C(C=CC=C2Cl)Cl.[K+]\u000a
p3212
sba(i__main__
Molecule
p3213
(dp3214
g3
VZohydro ER (hydrocodone bitartrate) Extended-Release Capsules
p3215
sg5
Vhydrocodone bitartrate
p3216
sg7
g3176
sg9
VCN1CCC23C4C1CC5=C2C(=C(C=C5)OC)OC3C(=O)CC4.C(C(C(=O)O)O)(C(=O)O)O\u000a
p3217
sba(i__main__
Molecule
p3218
(dp3219
g3
VGemzar (gemcitabine HCL)
p3220
sg5
Vgemcitabine HCL
p3221
sg7
VPancreatic Cancer
p3222
sg9
VC1=CN(C(=O)N=C1N)C2C(C(C(O2)CO)O)(F)F\u000a
p3223
sba(i__main__
Molecule
p3224
(dp3225
g3
VSecreFlo (secretin)
p3226
sg5
Vsecretin
p3227
sg7
VPancreatic Disorders
p3228
sg9
VCC(C)CC(C(=O)NC(C(C)C)C(=O)O)NC(=O)CNC(=O)C(CCC(=O)N)NC(=O)C(CC(C)C)NC(=O)C(CC(C)C)NC(=O)C(CCCNC(=N)N)NC(=O)C(CCC(=O)N)NC(=O)C(CC(C)C)NC(=O)C(CCCNC(=N)N)NC(=O)C(C)NC(=O)C(CO)NC(=O)C(CC(=O)O)NC(=O)C(CCCNC(=N)N)NC(=O)C(CC(C)C)NC(=O)C(CCCNC(=N)N)NC(=O)C(CO)NC(=O)C(CC(C)C)NC(=O)C(CCC(=O)O)NC(=O)C(CO)NC(=O)C(C(C)O)NC(=O)C(CC1=CC=CC=C1)NC(=O)C(C(C)O)NC(=O)CNC(=O)C(CC(=O)O)NC(=O)C(CO)NC(=O)C(CC2=NC=CN2)N\u000a
p3229
sba(i__main__
Molecule
p3230
(dp3231
g3
VPaxil (paroxetine hydrochloride)
p3232
sg5
Vparoxetine hydrochloride
p3233
sg7
VPanic Disorders
p3234
sg9
VC1CNCC(C1C2=CC=C(C=C2)F)COC3=CC4=C(C=C3)OCO4.Cl\u000a
p3235
sba(i__main__
Molecule
p3236
(dp3237
g3
VPaxil CR (paroxetine hydrochloride)
p3238
sg5
Vparoxetine hydrochloride
p3239
sg7
g3234
sg9
VC1CNCC(C1C2=CC=C(C=C2)F)COC3=CC4=C(C=C3)OCO4.Cl\u000a
p3240
sba(i__main__
Molecule
p3241
(dp3242
g3
VZoloft (sertraline HCl)
p3243
sg5
Vsertraline HCl
p3244
sg7
g3234
sg9
VCNC1CCC(C2=CC=CC=C12)C3=CC(=C(C=C3)Cl)Cl.Cl\u000a
p3245
sba(i__main__
Molecule
p3246
(dp3247
g3
VZoloft (sertraline HCl)
p3248
sg5
Vsertraline HCl
p3249
sg7
g3234
sg9
VCNC1CCC(C2=CC=CC=C12)C3=CC(=C(C=C3)Cl)Cl.Cl\u000a
p3250
sba(i__main__
Molecule
p3251
(dp3252
g3
VParsabiv (etelcalcetide)
p3253
sg5
Vetelcalcetide
p3254
sg7
VParathyroid Disorders
p3255
sg9
VCC(C(=O)NC(CCCN=C(N)N)C(=O)N)NC(=O)C(CCCN=C(N)N)NC(=O)C(CCCN=C(N)N)NC(=O)C(CCCN=C(N)N)NC(=O)C(C)NC(=O)C(CSSCC(C(=O)O)N)NC(=O)C\u000a
p3256
sba(i__main__
Molecule
p3257
(dp3258
g3
VRayaldee (calcifediol) 
p3259
sg5
Vcalcifediol
p3260
sg7
g3255
sg9
VCC(CCCC(C)(C)O)C1CCC2C1(CCCC2=CC=C3CC(CCC3=C)O)C\u000a
p3261
sba(i__main__
Molecule
p3262
(dp3263
g3
VApokyn (apomorphine hydrochloride)
p3264
sg5
Vapomorphine hydrochloride
p3265
sg7
VParkinson's Disease
p3266
sg9
VCN1CCC2=CC=CC3=C2C1CC4=C3C(=C(C=C4)O)O\u000a
p3267
sba(i__main__
Molecule
p3268
(dp3269
g3
VComtan
p3270
sg5
VComta
p3271
sg7
g3266
sg9
VCCN(CC)C(=O)C(=CC1=CC(=C(C(=C1)O)O)[N+](=O)[O-])C#N\u000a
p3272
sba(i__main__
Molecule
p3273
(dp3274
g3
VDuopa (carbidopa and levodopa) enteral suspension 
p3275
sg5
Vcarbidopa and levodopa
p3276
sg7
g3266
sg9
VCC(CC1=CC(=C(C=C1)O)O)(C(=O)O)NN\u000a
p3277
sba(i__main__
Molecule
p3278
(dp3279
g3
VExelon (rivastigmine tartrate)
p3280
sg5
Vrivastigmine tartrate
p3281
sg7
g3266
sg9
VCCN(C)C(=O)OC1=CC=CC(=C1)C(C)N(C)C\u000a
p3282
sba(i__main__
Molecule
p3283
(dp3284
g3
VGocovri (amantadine) 
p3285
sg5
Vamantadine
p3286
sg7
g3266
sg9
VC1C2CC3CC1CC(C2)(C3)N\u000a
p3287
sba(i__main__
Molecule
p3288
(dp3289
g3
VMirapex
p3290
sg5
VMirape
p3291
sg7
g3266
sg9
VCCCNC1CCC2=C(C1)SC(=N2)N\u000a
p3292
sba(i__main__
Molecule
p3293
(dp3294
g3
VNeupro (rotigotine)
p3295
sg5
Vrotigotine
p3296
sg7
g3266
sg9
VCCCN(CCC1=CC=CS1)C2CCC3=C(C2)C=CC=C3O\u000a
p3297
sba(i__main__
Molecule
p3298
(dp3299
g3
VNuplazid (pimavanserin)
p3300
sg5
Vpimavanserin
p3301
sg7
g3266
sg9
VCC(C)COC1=CC=C(C=C1)CNC(=O)N(CC2=CC=C(C=C2)F)C3CCN(CC3)C\u000a
p3302
sba(i__main__
Molecule
p3303
(dp3304
g3
VNuplazid (pimavanserin)
p3305
sg5
Vpimavanserin
p3306
sg7
g3266
sg9
VCC(C)COC1=CC=C(C=C1)CNC(=O)N(CC2=CC=C(C=C2)F)C3CCN(CC3)C\u000a
p3307
sba(i__main__
Molecule
p3308
(dp3309
g3
VPramipexole
p3310
sg5
VPramipexol
p3311
sg7
g3266
sg9
VCCCNC1CCC2=C(C1)SC(=N2)N\u000a
p3312
sba(i__main__
Molecule
p3313
(dp3314
g3
VRequip (ropinirole hydrochloride)
p3315
sg5
Vropinirole hydrochloride
p3316
sg7
g3266
sg9
VCCCN(CCC)CCC1=C2CC(=O)NC2=CC=C1.Cl\u000a
p3317
sba(i__main__
Molecule
p3318
(dp3319
g3
VRytary (carbidopa and levodopa) extended-release capsules
p3320
sg5
Vcarbidopa and levodopa
p3321
sg7
g3266
sg9
VCC(CC1=CC(=C(C=C1)O)O)(C(=O)O)NN\u000a
p3322
sba(i__main__
Molecule
p3323
(dp3324
g3
VTasmar
p3325
sg5
VTasma
p3326
sg7
g3266
sg9
VCC1=CC=C(C=C1)C(=O)C2=CC(=C(C(=C2)O)O)[N+](=O)[O-]\u000a
p3327
sba(i__main__
Molecule
p3328
(dp3329
g3
VXadago (safinamide)
p3330
sg5
Vsafinamide
p3331
sg7
g3266
sg9
VCC(C(=O)N)NCC1=CC=C(C=C1)OCC2=CC(=CC=C2)F\u000a
p3332
sba(i__main__
Molecule
p3333
(dp3334
g3
VBenznidazole
p3335
sg5
VBenznidazol
p3336
sg7
VPediatric Health
p3337
sg9
VCOC(=O)NC1=NC2=CC=CC=C2N1\u000a
p3338
sba(i__main__
Molecule
p3339
(dp3340
g3
VBrineura (cerliponase alfa)
p3341
sg5
Vcerliponase alfa
p3342
sg7
g3337
sg9
VC1=CC(=CC(=C1)Cl)C(F)(F)F\u000a
p3343
sba(i__main__
Molecule
p3344
(dp3345
g3
VCuvposa (glycopyrrolate)
p3346
sg5
Vglycopyrrolate
p3347
sg7
g3337
sg9
VC[N+]1(CCC(C1)OC(=O)C(C2CCCC2)(C3=CC=CC=C3)O)C.[Br-]\u000a
p3348
sba(i__main__
Molecule
p3349
(dp3350
g3
VEmflaza (deflazacort)
p3351
sg5
Vdeflazacort
p3352
sg7
g3337
sg9
VCC1=NC2(C(O1)CC3C2(CC(C4C3CCC5=CC(=O)C=CC45C)O)C)C(=O)COC(=O)C\u000a
p3353
sba(i__main__
Molecule
p3354
(dp3355
g3
VKovaltry [Antihemophilic Factor (Recombinant)]
p3356
sg5
VRecombinant
p3357
sg7
g3337
sg9
VCCC(C)C1C(=O)NC2CSSCC(C(=O)NC(CSSCC(C(=O)NCC(=O)NC(C(=O)NC(C(=O)NC(C(=O)NC(C(=O)NC(C(=O)NC(C(=O)NC(C(=O)NC(C(=O)NC(C(=O)NC(C(=O)NC(CSSCC(NC(=O)C(NC(=O)C(NC(=O)C(NC(=O)C(NC(=O)C(NC(=O)C(NC(=O)C(NC(=O)C(NC2=O)CO)CC(C)C)CC3=CC=C(C=C3)O)CCC(=O)N)CC(C)C)CCC(=O)O)CC(=O)N)CC4=CC=C(C=C4)O)C(=O)NC(CC(=O)N)C(=O)O)C(=O)NCC(=O)NC(CCC(=O)O)C(=O)NC(CCCNC(=N)N)C(=O)NCC(=O)NC(CC5=CC=CC=C5)C(=O)NC(CC6=CC=CC=C6)C(=O)NC(CC7=CC=C(C=C7)O)C(=O)NC(C(C)O)C(=O)N8CCCC8C(=O)NC(CCCCN)C(=O)NC(C(C)O)C(=O)O)C(C)C)CC(C)C)CC9=CC=C(C=C9)O)CC(C)C)C)CCC(=O)O)C(C)C)CC(C)C)CC2=CNC=N2)CO)NC(=O)C(CC(C)C)NC(=O)C(CC2=CNC=N2)NC(=O)C(CCC(=O)N)NC(=O)C(C(=O)N)NC(=O)C(C(C)C)NC(=O)C(CC2=CC=CC=C2)N)C(=O)NC(C(=O)NC(C(=O)N1)CO)C(C)O)NC(=O)C(CCC(=O)N)NC(=O)C(CCC(=O)O)NC(=O)C(C(C)C)NC(=O)C(C(C)CC)NC(=O)CN\u000a
p3358
sba(i__main__
Molecule
p3359
(dp3360
g3
VKynamro (mipomersen sodium)
p3361
sg5
Vmipomersen sodium
p3362
sg7
g3337
sg9
VCC1=CN(C(=O)NC1=O)C2CC(C(O2)COP(=O)(O)SC3CC(OC3COP(=O)(O)SC4CC(OC4COP(=O)(O)SC5CC(OC5COP(=O)(O)SC6CC(OC6COP(=O)(O)SC7CC(OC7COP(=O)(O)SC8CC(OC8COP(=O)(O)SC9CC(OC9COP(=O)(O)SC1C(OC(C1OCCOC)N1C=C(C(=NC1=O)N)C)COP(=O)(O)SC1C(OC(C1OCCOC)N1C=C(C(=O)NC1=O)C)COP(=O)(O)SC1C(OC(C1OCCOC)N1C=C(C(=NC1=O)N)C)COP(=O)(O)SC1C(OC(C1OCCOC)N1C=C(C(=NC1=O)N)C)COP(=O)(O)SC1C(OC(C1OCCOC)N1C=NC2=C1N=C(NC2=O)N)CO)N1C=NC2=C1N=CN=C2N)N1C=NC2=C1N=C(NC2=O)N)N1C=C(C(=O)NC1=O)C)N1C=C(C(=NC1=O)N)C)N1C=C(C(=O)NC1=O)C)N1C=NC2=C1N=C(NC2=O)N)N1C=C(C(=NC1=O)N)C)SP(=O)(O)OCC1C(CC(O1)N1C=C(C(=O)NC1=O)C)SP(=O)(O)OCC1C(CC(O1)N1C=C(C(=NC1=O)N)C)SP(=O)(O)OCC1C(C(C(O1)N1C=NC2=C1N=C(NC2=O)N)OCCOC)SP(=O)(O)OCC1C(C(C(O1)N1C=C(C(=NC1=O)N)C)OCCOC)SP(=O)(O)OCC1C(C(C(O1)N1C=NC2=C1N=CN=C2N)OCCOC)SP(=O)(O)OCC1C(C(C(O1)N1C=C(C(=NC1=O)N)C)OCCOC)SP(=O)(O)OCC1C(C(C(O1)N1C=C(C(=NC1=O)N)C)OCCOC)O\u000a
p3363
sba(i__main__
Molecule
p3364
(dp3365
g3
VQuillivant XR (methylphenidate hydrochloride)
p3366
sg5
Vmethylphenidate hydrochloride
p3367
sg7
g3337
sg9
VCOC(=O)C(C1CCCCN1)C2=CC=CC=C2.Cl\u000a
p3368
sba(i__main__
Molecule
p3369
(dp3370
g3
VVimizim (elosulfase alfa)
p3371
sg5
Velosulfase alfa
p3372
sg7
g3337
sg9
VC1=CC(=CC(=C1)Cl)C(F)(F)F\u000a
p3373
sba(i__main__
Molecule
p3374
(dp3375
g3
VAtridox
p3376
sg5
VAtrido
p3377
sg7
VPeriodontitis
p3378
sg9
VCC1C2C(C3C(C(=O)C(=C(C3(C(=O)C2=C(C4=C1C=CC=C4O)O)O)O)C(=O)N)N(C)C)O\u000a
p3379
sba(i__main__
Molecule
p3380
(dp3381
g3
VZontivity (vorapaxar)
p3382
sg5
Vvorapaxar
p3383
sg7
VPeripheral Arterial Disease (PAD)
p3384
sg9
VCCOC(=O)NC1CCC2C(C1)CC3C(C2C=CC4=NC=C(C=C4)C5=CC(=CC=C5)F)C(OC3=O)C\u000a
p3385
sba(i__main__
Molecule
p3386
(dp3387
g3
VZejula (niraparib)
p3388
sg5
Vniraparib
p3389
sg7
VPeritoneal Cancer
p3390
sg9
VC1CC(CNC1)C2=CC=C(C=C2)N3C=C4C=CC=C(C4=N3)C(=O)N\u000a
p3391
sba(i__main__
Molecule
p3392
(dp3393
g3
VAugmentin (amoxicillin/clavulanate)
p3394
sg5
Vamoxicillin/clavulanate
p3395
sg7
VPneumonia
p3396
sg9
VCC1(C(N2C(S1)C(C2=O)NC(=O)C(C3=CC=C(C=C3)O)N)C(=O)O)C.C1C2N(C1=O)C(C(=CCO)O2)C(=O)[O-].[K+]\u000a
p3397
sba(i__main__
Molecule
p3398
(dp3399
g3
VAvelox I.V. (moxifloxacin hydrochloride)
p3400
sg5
Vmoxifloxacin hydrochloride
p3401
sg7
g3396
sg9
VCOC1=C2C(=CC(=C1N3CC4CCCNC4C3)F)C(=O)C(=CN2C5CC5)C(=O)O.Cl\u000a
p3402
sba(i__main__
Molecule
p3403
(dp3404
g3
VVibativ (telavancin)
p3405
sg5
Vtelavancin
p3406
sg7
g3396
sg9
VCCCCCCCCCCNCCNC1(CC(OC(C1O)C)OC2C(C(C(OC2OC3=C4C=C5C=C3OC6=C(C=C(C=C6)C(C(C(=O)NC(C(=O)NC5C(=O)NC7C8=CC(=C(C=C8)O)C9=C(C(=C(C=C9C(NC(=O)C(C(C1=CC(=C(O4)C=C1)Cl)O)NC7=O)C(=O)O)O)CNCP(=O)(O)O)O)CC(=O)N)NC(=O)C(CC(C)C)NC)O)Cl)CO)O)O)C\u000a
p3407
sba(i__main__
Molecule
p3408
(dp3409
g3
VVibativ (telavancin)
p3410
sg5
Vtelavancin
p3411
sg7
g3396
sg9
VCCCCCCCCCCNCCNC1(CC(OC(C1O)C)OC2C(C(C(OC2OC3=C4C=C5C=C3OC6=C(C=C(C=C6)C(C(C(=O)NC(C(=O)NC5C(=O)NC7C8=CC(=C(C=C8)O)C9=C(C(=C(C=C9C(NC(=O)C(C(C1=CC(=C(O4)C=C1)Cl)O)NC7=O)C(=O)O)O)CNCP(=O)(O)O)O)CC(=O)N)NC(=O)C(CC(C)C)NC)O)Cl)CO)O)O)C\u000a
p3412
sba(i__main__
Molecule
p3413
(dp3414
g3
VZagam (sparfloxacin) tablets
p3415
sg5
Vsparfloxacin
p3416
sg7
g3396
sg9
VCC1CN(CC(N1)C)C2=C(C3=C(C(=C2F)N)C(=O)C(=CN3C4CC4)C(=O)O)F\u000a
p3417
sba(i__main__
Molecule
p3418
(dp3419
g3
VArimidex (anastrozole)
p3420
sg5
Vanastrozole
p3421
sg7
VPost Menopause
p3422
sg9
VCC(C)(C#N)C1=CC(=CC(=C1)CN2C=NC=N2)C(C)(C)C#N\u000a
p3423
sba(i__main__
Molecule
p3424
(dp3425
g3
VHorizant (gabapentin enacarbil)
p3426
sg5
Vgabapentin enacarbil
p3427
sg7
VPostherpetic Neuralgia
p3428
sg9
VCC(C)C(=O)OC(C)OC(=O)NCC1(CCCCC1)CC(=O)O\u000a
p3429
sba(i__main__
Molecule
p3430
(dp3431
g3
VHorizant (gabapentin enacarbil)
p3432
sg5
Vgabapentin enacarbil
p3433
sg7
g3428
sg9
VCC(C)C(=O)OC(C)OC(=O)NCC1(CCCCC1)CC(=O)O\u000a
p3434
sba(i__main__
Molecule
p3435
(dp3436
g3
VEvista (raloxifene hydrochloride)
p3437
sg5
Vraloxifene hydrochloride
p3438
sg7
VPost-Menopausal Osteoporosis
p3439
sg9
VC1CCN(CC1)CCOC2=CC=C(C=C2)C(=O)C3=C(SC4=C3C=CC(=C4)O)C5=CC=C(C=C5)O.Cl\u000a
p3440
sba(i__main__
Molecule
p3441
(dp3442
g3
VEvista (raloxifene hydrochloride)
p3443
sg5
Vraloxifene hydrochloride
p3444
sg7
g3439
sg9
VC1CCN(CC1)CCOC2=CC=C(C=C2)C(=O)C3=C(SC4=C3C=CC(=C4)O)C5=CC=C(C=C5)O.Cl\u000a
p3445
sba(i__main__
Molecule
p3446
(dp3447
g3
VFosamax (alendronate sodium)
p3448
sg5
Valendronate sodium
p3449
sg7
g3439
sg9
VC(CC(O)(P(=O)(O)O)P(=O)(O)[O-])CN.[Na+]\u000a
p3450
sba(i__main__
Molecule
p3451
(dp3452
g3
VMiacalcin (calcitonin-salmon) Nasal Spray
p3453
sg5
Vcalcitonin-salmon
p3454
sg7
g3439
sg9
VCC(C)CC1C(=O)NC(C(=O)NC(C(=O)NC(CSSCC(C(=O)NC(C(=O)NC(C(=O)N1)CC(=O)N)CO)N)C(=O)NC(C(C)C)C(=O)NC(CC(C)C)C(=O)NCC(=O)NC(CCCCN)C(=O)NC(CC(C)C)C(=O)NC(CO)C(=O)NC(CCC(=O)N)C(=O)NC(CCC(=O)O)C(=O)NC(CC(C)C)C(=O)NC(CC2=CN=CN2)C(=O)NC(CCCCN)C(=O)NC(CC(C)C)C(=O)NC(CCC(=O)N)C(=O)NC(C(C)O)C(=O)NC(CC3=CC=C(C=C3)O)C(=O)N4CCCC4C(=O)NC(CCCNC(=N)N)C(=O)NC(C(C)O)C(=O)NC(CC(=O)N)C(=O)NC(C(C)O)C(=O)NCC(=O)NC(CO)C(=O)NCC(=O)NC(C(C)O)C(=O)N5CCCC5C(=O)N)C(C)O)CO\u000a
p3455
sba(i__main__
Molecule
p3456
(dp3457
g3
VPremarin (conjugated estrogens)
p3458
sg5
Vconjugated estrogens
p3459
sg7
g3439
sg9
VCC12CCC3C(C1CCC2=O)CCC4=C3C=CC(=C4)OS(=O)(=O)[O-].[Na+]\u000a
p3460
sba(i__main__
Molecule
p3461
(dp3462
g3
VReclast (zoledronic acid)
p3463
sg5
Vzoledronic acid
p3464
sg7
g3439
sg9
VC1=CN(C=N1)CC(O)(P(=O)(O)O)P(=O)(O)O\u000a
p3465
sba(i__main__
Molecule
p3466
(dp3467
g3
VPicato (ingenol mebutate) gel
p3468
sg5
Vingenol mebutate
p3469
sg7
VPrecancerous condition
p3470
sg9
VCC=C(C)C(=O)OC1C(=CC23C1(C(C(=CC(C2=O)C4C(C4(C)C)CC3C)CO)O)O)C\u000a
p3471
sba(i__main__
Molecule
p3472
(dp3473
g3
VHyQvia [Immune Globulin Infusion 10% (Human) with Recombinant  Human Hyaluronidase]
p3474
sg5
VHuman
p3475
sg7
VPrimary Immunodeficiency Disorders
p3476
sg9
VCCC(C)C1C(=O)NCC(=O)NC(C(=O)NC(C(=O)NC(C(=O)NCC(=O)NC(C(=O)NCC(=O)NC(CSSCC(C(=O)NC(C(=O)NCC(=O)NCC(=O)NC(C(=O)NC(C(=O)NC(C(=O)NC(C(=O)N1)CCCNC(=N)N)CC(=O)O)CCSC)CCCNC(=N)N)CC2=CC=CC=C2)NC(=O)C(CO)NC(=O)C(CO)NC(=O)C(CCCNC(=N)N)NC(=O)C(CCCNC(=N)N)NC(=O)C(CC(C)C)NC(=O)C(CO)N)C(=O)NC(CC(=O)N)C(=O)NC(CO)C(=O)NC(CC3=CC=CC=C3)C(=O)NC(CCCNC(=N)N)C(=O)NC(CC4=CC=C(C=C4)O)C(=O)O)CC(C)C)CO)CCC(=O)N)C\u000a
p3477
sba(i__main__
Molecule
p3478
(dp3479
g3
VEligard (leuprolide acetate)
p3480
sg5
Vleuprolide acetate
p3481
sg7
VProstate Cancer
p3482
sg9
VCCNC(=O)C1CCCN1C(=O)C(CCCN=C(N)N)NC(=O)C(CC(C)C)NC(=O)C(CC(C)C)NC(=O)C(CC2=CC=C(C=C2)O)NC(=O)C(CO)NC(=O)C(CC3=CNC4=CC=CC=C43)NC(=O)C(CC5=CN=CN5)NC(=O)C6CCC(=O)N6.CC(=O)O\u000a
p3483
sba(i__main__
Molecule
p3484
(dp3485
g3
VEulexin (flutamide)
p3486
sg5
Vflutamide
p3487
sg7
g3482
sg9
VCC(C)C(=O)NC1=CC(=C(C=C1)[N+](=O)[O-])C(F)(F)F\u000a
p3488
sba(i__main__
Molecule
p3489
(dp3490
g3
VJevtana (cabazitaxel)
p3491
sg5
Vcabazitaxel
p3492
sg7
g3482
sg9
VCC1=C2C(C(=O)C3(C(CC4C(C3C(C(C2(C)C)(CC1OC(=O)C(C(C5=CC=CC=C5)NC(=O)OC(C)(C)C)O)O)OC(=O)C6=CC=CC=C6)(CO4)OC(=O)C)OC)C)OC\u000a
p3493
sba(i__main__
Molecule
p3494
(dp3495
g3
VProvenge (sipuleucel-T)
p3496
sg5
Vsipuleucel-T
p3497
sg7
g3482
sg9
VC1=CC=C2C(=C1)C=CC(=C2O)NN=C3C4=C(C=C(C=C4)[N+](=O)[O-])C(=CC3=O)S(=O)(=O)[O-].[Na+]\u000a
p3498
sba(i__main__
Molecule
p3499
(dp3500
g3
VTrelstar Depot (triptorelin pamoate)
p3501
sg5
Vtriptorelin pamoate
p3502
sg7
g3482
sg9
VCC(C)CC(C(=O)NC(CCCN=C(N)N)C(=O)N1CCCC1C(=O)NCC(=O)N)NC(=O)C(CC2=CNC3=CC=CC=C32)NC(=O)C(CC4=CC=C(C=C4)O)NC(=O)C(CO)NC(=O)C(CC5=CNC6=CC=CC=C65)NC(=O)C(CC7=CN=CN7)NC(=O)C8CCC(=O)N8\u000a
p3503
sba(i__main__
Molecule
p3504
(dp3505
g3
VTrelstar LA (triptorelin pamoate)
p3506
sg5
Vtriptorelin pamoate
p3507
sg7
g3482
sg9
VCC(C)CC(C(=O)NC(CCCN=C(N)N)C(=O)N1CCCC1C(=O)NCC(=O)N)NC(=O)C(CC2=CNC3=CC=CC=C32)NC(=O)C(CC4=CC=C(C=C4)O)NC(=O)C(CO)NC(=O)C(CC5=CNC6=CC=CC=C65)NC(=O)C(CC7=CN=CN7)NC(=O)C8CCC(=O)N8\u000a
p3508
sba(i__main__
Molecule
p3509
(dp3510
g3
VXtandi (enzalutamide)
p3511
sg5
Venzalutamide
p3512
sg7
g3482
sg9
VCC1(C(=O)N(C(=S)N1C2=CC(=C(C=C2)C(=O)NC)F)C3=CC(=C(C=C3)C#N)C(F)(F)F)C\u000a
p3513
sba(i__main__
Molecule
p3514
(dp3515
g3
VZytiga (abiraterone acetate)
p3516
sg5
Vabiraterone acetate
p3517
sg7
g3482
sg9
VCC(=O)OC1CCC2(C3CCC4(C(C3CC=C2C1)CC=C4C5=CN=CC=C5)C)C\u000a
p3518
sba(i__main__
Molecule
p3519
(dp3520
g3
VOtezla (apremilast)
p3521
sg5
Vapremilast
p3522
sg7
VPsoriasis and Psoriatic Disorders
p3523
sg9
VCCOC1=C(C=CC(=C1)C(CS(=O)(=O)C)N2C(=O)C3=C(C2=O)C(=CC=C3)NC(=O)C)OC\u000a
p3524
sba(i__main__
Molecule
p3525
(dp3526
g3
VRayos (prednisone) delayed-release tablets
p3527
sg5
Vprednisone
p3528
sg7
g3523
sg9
VCC12CC(=O)C3C(C1CCC2(C(=O)CO)O)CCC4=CC(=O)C=CC34C\u000a
p3529
sba(i__main__
Molecule
p3530
(dp3531
g3
VOtezla (apremilast)
p3532
sg5
Vapremilast
p3533
sg7
VPsoriatic Arthritis
p3534
sg9
VCCOC1=C(C=CC(=C1)C(CS(=O)(=O)C)N2C(=O)C3=C(C2=O)C(=CC=C3)NC(=O)C)OC\u000a
p3535
sba(i__main__
Molecule
p3536
(dp3537
g3
VRayos (prednisone) delayed-release tablets
p3538
sg5
Vprednisone
p3539
sg7
g3534
sg9
VCC12CC(=O)C3C(C1CCC2(C(=O)CO)O)CCC4=CC(=O)C=CC34C\u000a
p3540
sba(i__main__
Molecule
p3541
(dp3542
g3
VNuplazid (pimavanserin)
p3543
sg5
Vpimavanserin
p3544
sg7
VPsychosis
p3545
sg9
VCC(C)COC1=CC=C(C=C1)CNC(=O)N(CC2=CC=C(C=C2)F)C3CCN(CC3)C\u000a
p3546
sba(i__main__
Molecule
p3547
(dp3548
g3
VProchlorperazine
p3549
sg5
VProchlorperazin
p3550
sg7
g3545
sg9
VCN1CCN(CC1)CCCN2C3=CC=CC=C3SC4=C2C=C(C=C4)Cl\u000a
p3551
sba(i__main__
Molecule
p3552
(dp3553
g3
VSeroquel (R)  (quetiapine fumarate) Tablets
p3554
sg5
g419
sg7
g3545
sg9
VCC(C)(C)OC(=O)N1CCC(C1)O\u000a
p3555
sba(i__main__
Molecule
p3556
(dp3557
g3
VZyprexa
p3558
sg5
VZyprex
p3559
sg7
g3545
sg9
VCC1=CC2=C(NC3=CC=CC=C3N=C2S1)N4CCN(CC4)C\u000a
p3560
sba(i__main__
Molecule
p3561
(dp3562
g3
VAdcirca (tadalafil)
p3563
sg5
Vtadalafil
p3564
sg7
VPulmonary Arterial Hypertension
p3565
sg9
VCN1CC(=O)N2C(C1=O)CC3=C(C2C4=CC5=C(C=C4)OCO5)NC6=CC=CC=C36\u000a
p3566
sba(i__main__
Molecule
p3567
(dp3568
g3
VAdempas (riociguat)
p3569
sg5
Vriociguat
p3570
sg7
g3565
sg9
VCN(C1=C(N=C(N=C1N)C2=NN(C3=C2C=CC=N3)CC4=CC=CC=C4F)N)C(=O)OC\u000a
p3571
sba(i__main__
Molecule
p3572
(dp3573
g3
VLetairis (ambrisentan)
p3574
sg5
Vambrisentan
p3575
sg7
g3565
sg9
VCC1=CC(=NC(=N1)OC(C(=O)O)C(C2=CC=CC=C2)(C3=CC=CC=C3)OC)C\u000a
p3576
sba(i__main__
Molecule
p3577
(dp3578
g3
VOpsumit (macitentan)
p3579
sg5
Vmacitentan
p3580
sg7
g3565
sg9
VCCCNS(=O)(=O)NC1=C(C(=NC=N1)OCCOC2=NC=C(C=N2)Br)C3=CC=C(C=C3)Br\u000a
p3581
sba(i__main__
Molecule
p3582
(dp3583
g3
VRemodulin (treprostinil)
p3584
sg5
Vtreprostinil
p3585
sg7
g3565
sg9
VCCCCCC(CCC1C(CC2C1CC3=C(C2)C(=CC=C3)OCC(=O)O)O)O\u000a
p3586
sba(i__main__
Molecule
p3587
(dp3588
g3
VTracleer (bosentan)
p3589
sg5
Vbosentan
p3590
sg7
g3565
sg9
VCC(C)(C)C1=CC=C(C=C1)S(=O)(=O)NC2=C(C(=NC(=N2)C3=NC=CC=N3)OCCO)OC4=CC=CC=C4OC\u000a
p3591
sba(i__main__
Molecule
p3592
(dp3593
g3
VTyvaso (treprostinil)
p3594
sg5
Vtreprostinil
p3595
sg7
g3565
sg9
VCCCCCC(CCC1C(CC2C1CC3=C(C2)C(=CC=C3)OCC(=O)O)O)O\u000a
p3596
sba(i__main__
Molecule
p3597
(dp3598
g3
VSavaysa (edoxaban)
p3599
sg5
Vedoxaban
p3600
sg7
VPulmonary Embolism
p3601
sg9
VCN1CCC2=C(C1)SC(=N2)C(=O)NC3CC(CCC3NC(=O)C(=O)NC4=NC=C(C=C4)Cl)C(=O)N(C)C\u000a
p3602
sba(i__main__
Molecule
p3603
(dp3604
g3
VInlyta (axitinib)
p3605
sg5
Vaxitinib
p3606
sg7
VRenal Cancer
p3607
sg9
VCNC(=O)C1=CC=CC=C1SC2=CC3=C(C=C2)C(=NN3)C=CC4=CC=CC=N4\u000a
p3608
sba(i__main__
Molecule
p3609
(dp3610
g3
VAfinitor (everolimus)
p3611
sg5
Veverolimus
p3612
sg7
VRenal Cell Cancer
p3613
sg9
VCC1CCC2CC(C(=CC=CC=CC(CC(C(=O)C(C(C(=CC(C(=O)CC(OC(=O)C3CCCCN3C(=O)C(=O)C1(O2)O)C(C)CC4CCC(C(C4)OC)OCCO)C)C)O)OC)C)C)C)OC\u000a
p3614
sba(i__main__
Molecule
p3615
(dp3616
g3
VAvastin (bevacizumab)
p3617
sg5
Vbevacizumab
p3618
sg7
g3613
sg9
V[Li+].CCN(CC)CCNC(=O)C1=CC(=C(C=C1)C(=O)[O-])I\u000a
p3619
sba(i__main__
Molecule
p3620
(dp3621
g3
VCabometyx (cabozantinib)
p3622
sg5
Vcabozantinib
p3623
sg7
g3613
sg9
VCOC1=CC2=C(C=CN=C2C=C1OC)OC3=CC=C(C=C3)NC(=O)C4(CC4)C(=O)NC5=CC=C(C=C5)F\u000a
p3624
sba(i__main__
Molecule
p3625
(dp3626
g3
VInlyta (axitinib)
p3627
sg5
Vaxitinib
p3628
sg7
g3613
sg9
VCNC(=O)C1=CC=CC=C1SC2=CC3=C(C=C2)C(=NN3)C=CC4=CC=CC=N4\u000a
p3629
sba(i__main__
Molecule
p3630
(dp3631
g3
VLenvima (lenvatinib)
p3632
sg5
Vlenvatinib
p3633
sg7
g3613
sg9
VCOC1=CC2=NC=CC(=C2C=C1C(=O)N)OC3=CC(=C(C=C3)NC(=O)NC4CC4)Cl\u000a
p3634
sba(i__main__
Molecule
p3635
(dp3636
g3
VNexavar (sorafenib)
p3637
sg5
Vsorafenib
p3638
sg7
g3613
sg9
VCNC(=O)C1=NC=CC(=C1)OC2=CC=C(C=C2)NC(=O)NC3=CC(=C(C=C3)Cl)C(F)(F)F\u000a
p3639
sba(i__main__
Molecule
p3640
(dp3641
g3
VTorisel (temsirolimus)
p3642
sg5
Vtemsirolimus
p3643
sg7
g3613
sg9
VCC1CCC2CC(C(=CC=CC=CC(CC(C(=O)C(C(C(=CC(C(=O)CC(OC(=O)C3CCCCN3C(=O)C(=O)C1(O2)O)C(C)CC4CCC(C(C4)OC)OC(=O)C(C)(CO)CO)C)C)O)OC)C)C)C)OC\u000a
p3644
sba(i__main__
Molecule
p3645
(dp3646
g3
VVotrient (pazopanib)
p3647
sg5
Vpazopanib
p3648
sg7
g3613
sg9
VCC1=C(C=C(C=C1)NC2=NC=CC(=N2)N(C)C3=CC4=NN(C(=C4C=C3)C)C)S(=O)(=O)N\u000a
p3649
sba(i__main__
Molecule
p3650
(dp3651
g3
VCabometyx (cabozantinib)
p3652
sg5
Vcabozantinib
p3653
sg7
VRenal Cell Carcinoma
p3654
sg9
VCOC1=CC2=C(C=CN=C2C=C1OC)OC3=CC=C(C=C3)NC(=O)C4(CC4)C(=O)NC5=CC=C(C=C5)F\u000a
p3655
sba(i__main__
Molecule
p3656
(dp3657
g3
VInlyta (axitinib)
p3658
sg5
Vaxitinib
p3659
sg7
g3654
sg9
VCNC(=O)C1=CC=CC=C1SC2=CC3=C(C=C2)C(=NN3)C=CC4=CC=CC=N4\u000a
p3660
sba(i__main__
Molecule
p3661
(dp3662
g3
VLenvima (lenvatinib)
p3663
sg5
Vlenvatinib
p3664
sg7
g3654
sg9
VCOC1=CC2=NC=CC(=C2C=C1C(=O)N)OC3=CC(=C(C=C3)NC(=O)NC4CC4)Cl\u000a
p3665
sba(i__main__
Molecule
p3666
(dp3667
g3
VZemplar
p3668
sg5
VZempla
p3669
sg7
VRenal Failure
p3670
sg9
VCC(C=CC(C)C(C)(C)O)C1CCC2C1(CCCC2=CC=C3CC(CC(C3)O)O)C\u000a
p3671
sba(i__main__
Molecule
p3672
(dp3673
g3
VHorizant (gabapentin enacarbil)
p3674
sg5
Vgabapentin enacarbil
p3675
sg7
VRestless Leg Syndrome
p3676
sg9
VCC(C)C(=O)OC(C)OC(=O)NCC1(CCCCC1)CC(=O)O\u000a
p3677
sba(i__main__
Molecule
p3678
(dp3679
g3
VBextra
p3680
sg5
VBextr
p3681
sg7
VRheumatoid Arthritis
p3682
sg9
VC1=CC=C2C(=C1)C=CC(=O)C2=NNC3=CC=C(C=C3)S(=O)(=O)[O-].[Na+]\u000a
p3683
sba(i__main__
Molecule
p3684
(dp3685
g3
VEtodolac
p3686
sg5
VEtodola
p3687
sg7
g3682
sg9
VCCC1=CC=CC2=C1NC3=C2CCOC3(CC)CC(=O)O\u000a
p3688
sba(i__main__
Molecule
p3689
(dp3690
g3
VLodine (etodolac)
p3691
sg5
Vetodolac
p3692
sg7
g3682
sg9
VCCC1=CC=CC2=C1NC3=C2CCOC3(CC)CC(=O)O\u000a
p3693
sba(i__main__
Molecule
p3694
(dp3695
g3
VNaprelan (naproxen sodium)
p3696
sg5
Vnaproxen sodium
p3697
sg7
g3682
sg9
VCC(C1=CC2=C(C=C1)C=C(C=C2)OC)C(=O)O\u000a
p3698
sba(i__main__
Molecule
p3699
(dp3700
g3
VRayos (prednisone) delayed-release tablets
p3701
sg5
Vprednisone
p3702
sg7
g3682
sg9
VCC12CC(=O)C3C(C1CCC2(C(=O)CO)O)CCC4=CC(=O)C=CC34C\u000a
p3703
sba(i__main__
Molecule
p3704
(dp3705
g3
VVioxx (rofecoxib)
p3706
sg5
Vrofecoxib
p3707
sg7
g3682
sg9
VCS(=O)(=O)C1=CC=C(C=C1)C2=C(C(=O)OC2)C3=CC=CC=C3\u000a
p3708
sba(i__main__
Molecule
p3709
(dp3710
g3
VXeljanz (tofacitinib)
p3711
sg5
Vtofacitinib
p3712
sg7
g3682
sg9
VCC1CCN(CC1N(C)C2=NC=NC3=C2C=CN3)C(=O)CC#N\u000a
p3713
sba(i__main__
Molecule
p3714
(dp3715
g3
VAllegra (fexofenadine hydrochloride)
p3716
sg5
Vfexofenadine hydrochloride
p3717
sg7
VRhinitis, Allergic, Perennial
p3718
sg9
VCC(C)(C1=CC=C(C=C1)C(CCCN2CCC(CC2)C(C3=CC=CC=C3)(C4=CC=CC=C4)O)O)C(=O)O.Cl\u000a
p3719
sba(i__main__
Molecule
p3720
(dp3721
g3
VClarinex
p3722
sg5
VClarine
p3723
sg7
g3718
sg9
VC1CC2=C(C=CC(=C2)Cl)C(=C3CCNCC3)C4=C1C=CC=N4\u000a
p3724
sba(i__main__
Molecule
p3725
(dp3726
g3
VClemastine fumarate syrup
p3727
sg5
VClemastine fumarate syru
p3728
sg7
g3718
sg9
VCC(C1=CC=CC=C1)(C2=CC=C(C=C2)Cl)OCCC3CCCN3C.C(=CC(=O)O)C(=O)O\u000a
p3729
sba(i__main__
Molecule
p3730
(dp3731
g3
VNasacort AQ (triamcinolone acetonide) Nasal Spray
p3732
sg5
Vtriamcinolone acetonide
p3733
sg7
g3718
sg9
VCC1(OC2CC3C4CCC5=CC(=O)C=CC5(C4(C(CC3(C2(O1)C(=O)CO)C)O)F)C)C\u000a
p3734
sba(i__main__
Molecule
p3735
(dp3736
g3
VPatanase (olopatadine hydrochloride)
p3737
sg5
Volopatadine hydrochloride
p3738
sg7
g3718
sg9
VCN(C)CCC=C1C2=CC=CC=C2COC3=C1C=C(C=C3)CC(=O)O.Cl\u000a
p3739
sba(i__main__
Molecule
p3740
(dp3741
g3
VQnasl (beclomethasone dipropionate) nasal aerosol
p3742
sg5
Vbeclomethasone dipropionate
p3743
sg7
g3718
sg9
VCCC(=O)OCC(=O)C1(C(CC2C1(CC(C3(C2CCC4=CC(=O)C=CC43C)Cl)O)C)C)OC(=O)CC\u000a
p3744
sba(i__main__
Molecule
p3745
(dp3746
g3
VVeramyst (fluticasone furoate)
p3747
sg5
Vfluticasone furoate
p3748
sg7
g3718
sg9
VCC1CC2C3CC(C4=CC(=O)C=CC4(C3(C(CC2(C1(C(=O)SCF)OC(=O)C5=CC=CO5)C)O)F)C)F\u000a
p3749
sba(i__main__
Molecule
p3750
(dp3751
g3
VXyzal (levocetirizine dihydrochloride)
p3752
sg5
Vlevocetirizine dihydrochloride
p3753
sg7
g3718
sg9
VC1CN(CCN1CCOCC(=O)O)C(C2=CC=CC=C2)C3=CC=C(C=C3)Cl.Cl.Cl\u000a
p3754
sba(i__main__
Molecule
p3755
(dp3756
g3
VFinacea (azelaic acid) Gel, 15%
p3757
sg5
Vazelaic acid
p3758
sg7
VRosacea
p3759
sg9
VC(CCCC(=O)O)CCCC(=O)O\u000a
p3760
sba(i__main__
Molecule
p3761
(dp3762
g3
VMirvaso (brimonidine)
p3763
sg5
Vbrimonidine
p3764
sg7
g3759
sg9
VC1CN=C(N1)NC2=C(C3=NC=CN=C3C=C2)Br\u000a
p3765
sba(i__main__
Molecule
p3766
(dp3767
g3
VRhofade (oxymetazoline hydrochloride)
p3768
sg5
Voxymetazoline hydrochloride
p3769
sg7
g3759
sg9
VCC1=CC(=C(C(=C1CC2=NCCN2)C)O)C(C)(C)C.Cl\u000a
p3770
sba(i__main__
Molecule
p3771
(dp3772
g3
VSoolantra (ivermectin) cream, 1%
p3773
sg5
Vivermectin
p3774
sg7
g3759
sg9
VCCC(C)C1C(CCC2(O1)CC3CC(O2)CC=C(C(C(C=CC=C4COC5C4(C(C=C(C5O)C)C(=O)O3)O)C)OC6CC(C(C(O6)C)OC7CC(C(C(O7)C)O)OC)OC)C)C\u000a
p3775
sba(i__main__
Molecule
p3776
(dp3777
g3
VYondelis (trabectedin)
p3778
sg5
Vtrabectedin
p3779
sg7
VSarcoma
p3780
sg9
VCC1=C(C(=C2C3C4C5C6=C(C(N4C(C(N3C)CC2=C1)O)COC(=O)C7(CS5)C8=CC(=C(C=C8CCN7)O)OC)C9=C(C(=C6OC(=O)C)C)OCO9)O)OC\u000a
p3781
sba(i__main__
Molecule
p3782
(dp3783
g3
VSeprafilm
p3784
sg5
VSeprafil
p3785
sg7
VScar Tissue
p3786
sg9
VCCC(C(C)O)N1C(=O)N(C=N1)C2=CC=C(C=C2)N3CCN(CC3)C4=CC=C(C=C4)OCC5CC(OC5)(CN6C=NC=N6)C7=C(C=C(C=C7)F)F\u000a
p3787
sba(i__main__
Molecule
p3788
(dp3789
g3
VAbilify (aripiprazole)
p3790
sg5
Varipiprazole
p3791
sg7
VSchizophrenia and Schizoaffective Disorders
p3792
sg9
VC1CC(=O)NC2=C1C=CC(=C2)OCCCCN3CCN(CC3)C4=C(C(=CC=C4)Cl)Cl\u000a
p3793
sba(i__main__
Molecule
p3794
(dp3795
g3
VFanapt (iloperidone)
p3796
sg5
Viloperidone
p3797
sg7
g3792
sg9
VCC(=O)C1=CC(=C(C=C1)OCCCN2CCC(CC2)C3=NOC4=C3C=CC(=C4)F)OC\u000a
p3798
sba(i__main__
Molecule
p3799
(dp3800
g3
VGeodon (ziprasidone mesylate)
p3801
sg5
Vziprasidone mesylate
p3802
sg7
g3792
sg9
VC1CN(CCN1CCC2=C(C=C3C(=C2)CC(=O)N3)Cl)C4=NSC5=CC=CC=C54\u000a
p3803
sba(i__main__
Molecule
p3804
(dp3805
g3
VInvega (paliperidone)
p3806
sg5
Vpaliperidone
p3807
sg7
g3792
sg9
VCC1=C(C(=O)N2CCCC(C2=N1)O)CCN3CCC(CC3)C4=NOC5=C4C=CC(=C5)F\u000a
p3808
sba(i__main__
Molecule
p3809
(dp3810
g3
VLatuda (lurasidone)
p3811
sg5
Vlurasidone
p3812
sg7
g3792
sg9
VC1CCC(C(C1)CN2CCN(CC2)C3=NSC4=CC=CC=C43)CN5C(=O)C6C7CCC(C7)C6C5=O\u000a
p3813
sba(i__main__
Molecule
p3814
(dp3815
g3
VRexulti (brexpiprazole)
p3816
sg5
Vbrexpiprazole
p3817
sg7
g3792
sg9
VC1CN(CCN1CCCCOC2=CC3=C(C=C2)C=CC(=O)N3)C4=C5C=CSC5=CC=C4\u000a
p3818
sba(i__main__
Molecule
p3819
(dp3820
g3
VSaphris (asenapine)
p3821
sg5
Vasenapine
p3822
sg7
g3792
sg9
VCN1CC2C(C1)C3=C(C=CC(=C3)Cl)OC4=CC=CC=C24\u000a
p3823
sba(i__main__
Molecule
p3824
(dp3825
g3
VVraylar (cariprazine)
p3826
sg5
Vcariprazine
p3827
sg7
g3792
sg9
VCN(C)C(=O)NC1CCC(CC1)CCN2CCN(CC2)C3=C(C(=CC=C3)Cl)Cl\u000a
p3828
sba(i__main__
Molecule
p3829
(dp3830
g3
VZiprasidone (ziprasidone hydrochloride)
p3831
sg5
Vziprasidone hydrochloride
p3832
sg7
g3792
sg9
VC1CN(CCN1CCC2=C(C=C3C(=C2)CC(=O)N3)Cl)C4=NSC5=CC=CC=C54\u000a
p3833
sba(i__main__
Molecule
p3834
(dp3835
g3
VEskata (hydrogen peroxide)
p3836
sg5
Vhydrogen peroxide
p3837
sg7
VSeborrhea
p3838
sg9
VOO\u000a
p3839
sba(i__main__
Molecule
p3840
(dp3841
g3
VEskata (hydrogen peroxide)
p3842
sg5
Vhydrogen peroxide
p3843
sg7
VSeborrheic Dermatitis
p3844
sg9
VOO\u000a
p3845
sba(i__main__
Molecule
p3846
(dp3847
g3
VAptiom (eslicarbazepine acetate)
p3848
sg5
Veslicarbazepine acetate
p3849
sg7
VSeizure Disorders
p3850
sg9
VCC(=O)OC1CC2=CC=CC=C2N(C3=CC=CC=C13)C(=O)N\u000a
p3851
sba(i__main__
Molecule
p3852
(dp3853
g3
VBanzel (rufinamide)
p3854
sg5
Vrufinamide
p3855
sg7
g3850
sg9
VC1=CC(=C(C(=C1)F)CN2C=C(N=N2)C(=O)N)F\u000a
p3856
sba(i__main__
Molecule
p3857
(dp3858
g3
VBriviact (brivaracetam)
p3859
sg5
Vbrivaracetam
p3860
sg7
g3850
sg9
VCCCC1CC(=O)N(C1)C(CC)C(=O)N\u000a
p3861
sba(i__main__
Molecule
p3862
(dp3863
g3
VCarbatrol
p3864
sg5
VCarbatro
p3865
sg7
g3850
sg9
VCN(C)C(=S)SSC1=CC=C(C=C1)Cl\u000a
p3866
sba(i__main__
Molecule
p3867
(dp3868
g3
VCarnexiv (carbamazepine)
p3869
sg5
Vcarbamazepine
p3870
sg7
g3850
sg9
VC1=CC=C2C(=C1)C=CC3=CC=CC=C3N2C(=O)N\u000a
p3871
sba(i__main__
Molecule
p3872
(dp3873
g3
VClonazepam
p3874
sg5
VClonazepa
p3875
sg7
g3850
sg9
VC1C(=O)NC2=C(C=C(C=C2)[N+](=O)[O-])C(=N1)C3=CC=CC=C3Cl\u000a
p3876
sba(i__main__
Molecule
p3877
(dp3878
g3
VFycompa (perampanel)
p3879
sg5
Vperampanel
p3880
sg7
g3850
sg9
VC1=CC=C(C=C1)N2C=C(C=C(C2=O)C3=CC=CC=C3C#N)C4=CC=CC=N4\u000a
p3881
sba(i__main__
Molecule
p3882
(dp3883
g3
VKeppra
p3884
sg5
VKeppr
p3885
sg7
g3850
sg9
VCCC(C(=O)N)N1CCCC1=O\u000a
p3886
sba(i__main__
Molecule
p3887
(dp3888
g3
VNeurontin (gabapentin) oral solution
p3889
sg5
Vgabapentin
p3890
sg7
g3850
sg9
VC1CCC(CC1)(CC(=O)O)CN\u000a
p3891
sba(i__main__
Molecule
p3892
(dp3893
g3
VOnfi (clobazam)
p3894
sg5
Vclobazam
p3895
sg7
g3850
sg9
VCN1C(=O)CC(=O)N(C2=C1C=CC(=C2)Cl)C3=CC=CC=C3\u000a
p3896
sba(i__main__
Molecule
p3897
(dp3898
g3
VPotiga (ezogabine)
p3899
sg5
Vezogabine
p3900
sg7
g3850
sg9
VCCOC(=O)NC1=C(C=C(C=C1)NCC2=CC=C(C=C2)F)N\u000a
p3901
sba(i__main__
Molecule
p3902
(dp3903
g3
VQudexy XR (topiramate)
p3904
sg5
Vtopiramate
p3905
sg7
g3850
sg9
VCC1(OC2COC3(C(C2O1)OC(O3)(C)C)COS(=O)(=O)N)C\u000a
p3906
sba(i__main__
Molecule
p3907
(dp3908
g3
VSabril (vigabatrin)
p3909
sg5
Vvigabatrin
p3910
sg7
g3850
sg9
VC=CC(CCC(=O)O)N\u000a
p3911
sba(i__main__
Molecule
p3912
(dp3913
g3
VTegretol XR (carbamazepine)
p3914
sg5
Vcarbamazepine
p3915
sg7
g3850
sg9
VC1=CC=C2C(=C1)C=CC3=CC=CC=C3N2C(=O)N\u000a
p3916
sba(i__main__
Molecule
p3917
(dp3918
g3
VTopamax (topiramate)
p3919
sg5
Vtopiramate
p3920
sg7
g3850
sg9
VCC1(OC2COC3(C(C2O1)OC(O3)(C)C)COS(=O)(=O)N)C\u000a
p3921
sba(i__main__
Molecule
p3922
(dp3923
g3
VTrileptal (oxcarbazepine) Tablets
p3924
sg5
Voxcarbazepine
p3925
sg7
g3850
sg9
VC1C2=CC=CC=C2N(C3=CC=CC=C3C1=O)C(=O)N\u000a
p3926
sba(i__main__
Molecule
p3927
(dp3928
g3
VTrokendi XR (topiramate)
p3929
sg5
Vtopiramate
p3930
sg7
g3850
sg9
VCC1(OC2COC3(C(C2O1)OC(O3)(C)C)COS(=O)(=O)N)C\u000a
p3931
sba(i__main__
Molecule
p3932
(dp3933
g3
VVimpat (lacosamide)
p3934
sg5
Vlacosamide
p3935
sg7
g3850
sg9
VCC(=O)NC(COC)C(=O)NCC1=CC=CC=C1\u000a
p3936
sba(i__main__
Molecule
p3937
(dp3938
g3
VZonegran (zonisamide) Capsules
p3939
sg5
Vzonisamide
p3940
sg7
g3850
sg9
VC1=CC=C2C(=C1)C(=NO2)CS(=O)(=O)N\u000a
p3941
sba(i__main__
Molecule
p3942
(dp3943
g3
VBriviact (brivaracetam)
p3944
sg5
Vbrivaracetam
p3945
sg7
VSeizure Disorders (Pediatric)
p3946
sg9
VCCCC1CC(=O)N(C1)C(CC)C(=O)N\u000a
p3947
sba(i__main__
Molecule
p3948
(dp3949
g3
VFycompa (perampanel)
p3950
sg5
Vperampanel
p3951
sg7
g3946
sg9
VC1=CC=C(C=C1)N2C=C(C=C(C2=O)C3=CC=CC=C3C#N)C4=CC=CC=N4\u000a
p3952
sba(i__main__
Molecule
p3953
(dp3954
g3
VNeurontin (gabapentin) oral solution
p3955
sg5
Vgabapentin
p3956
sg7
g3946
sg9
VC1CCC(CC1)(CC(=O)O)CN\u000a
p3957
sba(i__main__
Molecule
p3958
(dp3959
g3
VOnfi (clobazam)
p3960
sg5
Vclobazam
p3961
sg7
g3946
sg9
VCN1C(=O)CC(=O)N(C2=C1C=CC(=C2)Cl)C3=CC=CC=C3\u000a
p3962
sba(i__main__
Molecule
p3963
(dp3964
g3
VPotiga (ezogabine)
p3965
sg5
Vezogabine
p3966
sg7
g3946
sg9
VCCOC(=O)NC1=C(C=C(C=C1)NCC2=CC=C(C=C2)F)N\u000a
p3967
sba(i__main__
Molecule
p3968
(dp3969
g3
VQudexy XR (topiramate)
p3970
sg5
Vtopiramate
p3971
sg7
g3946
sg9
VCC1(OC2COC3(C(C2O1)OC(O3)(C)C)COS(=O)(=O)N)C\u000a
p3972
sba(i__main__
Molecule
p3973
(dp3974
g3
VTrileptal (oxcarbazepine) Tablets
p3975
sg5
Voxcarbazepine
p3976
sg7
g3946
sg9
VC1C2=CC=CC=C2N(C3=CC=CC=C3C1=O)C(=O)N\u000a
p3977
sba(i__main__
Molecule
p3978
(dp3979
g3
VTrokendi XR (topiramate)
p3980
sg5
Vtopiramate
p3981
sg7
g3946
sg9
VCC1(OC2COC3(C(C2O1)OC(O3)(C)C)COS(=O)(=O)N)C\u000a
p3982
sba(i__main__
Molecule
p3983
(dp3984
g3
VGiapreza (angiotensin II) 
p3985
sg5
Vangiotensin II
p3986
sg7
VSepsis and Septicemia
p3987
sg9
VCCC(C)C(C(=O)NC(CC1=CN=CN1)C(=O)N2CCCC2C(=O)NC(CC3=CC=CC=C3)C(=O)O)NC(=O)C(CC4=CC=C(C=C4)O)NC(=O)C(C(C)C)NC(=O)C(CCCN=C(N)N)NC(=O)C(CC(=O)O)N\u000a
p3988
sba(i__main__
Molecule
p3989
(dp3990
g3
VTimentin
p3991
sg5
VTimenti
p3992
sg7
g3987
sg9
VCC1(C(N2C(S1)C(C2=O)NC(=O)C(C3=CSC=C3)C(=O)O)C(=O)O)C.C1C2N(C1=O)C(C(=CCO)O2)C(=O)O\u000a
p3993
sba(i__main__
Molecule
p3994
(dp3995
g3
VAddyi (flibanserin)
p3996
sg5
Vflibanserin
p3997
sg7
VSexual Dysfunction
p3998
sg9
VC1CN(CCN1CCN2C3=CC=CC=C3NC2=O)C4=CC=CC(=C4)C(F)(F)F\u000a
p3999
sba(i__main__
Molecule
p4000
(dp4001
g3
VHorizant (gabapentin enacarbil)
p4002
sg5
Vgabapentin enacarbil
p4003
sg7
VShingles
p4004
sg9
VCC(C)C(=O)OC(C)OC(=O)NCC1(CCCCC1)CC(=O)O\u000a
p4005
sba(i__main__
Molecule
p4006
(dp4007
g3
VHorizant (gabapentin enacarbil)
p4008
sg5
Vgabapentin enacarbil
p4009
sg7
g4004
sg9
VCC(C)C(=O)OC(C)OC(=O)NCC1(CCCCC1)CC(=O)O\u000a
p4010
sba(i__main__
Molecule
p4011
(dp4012
g3
VNeurontin (gabapentin)
p4013
sg5
Vgabapentin
p4014
sg7
g4004
sg9
VC1CCC(CC1)(CC(=O)O)CN\u000a
p4015
sba(i__main__
Molecule
p4016
(dp4017
g3
VAugmentin (amoxicillin/clavulanate)
p4018
sg5
Vamoxicillin/clavulanate
p4019
sg7
VSinus Infections
p4020
sg9
VCC1(C(N2C(S1)C(C2=O)NC(=O)C(C3=CC=C(C=C3)O)N)C(=O)O)C.C1C2N(C1=O)C(C(=CCO)O2)C(=O)[O-].[K+]\u000a
p4021
sba(i__main__
Molecule
p4022
(dp4023
g3
VAvelox I.V. (moxifloxacin hydrochloride)
p4024
sg5
Vmoxifloxacin hydrochloride
p4025
sg7
g4020
sg9
VCOC1=C2C(=CC(=C1N3CC4CCCNC4C3)F)C(=O)C(=CN2C5CC5)C(=O)O.Cl\u000a
p4026
sba(i__main__
Molecule
p4027
(dp4028
g3
VCipro (ciprofloxacin HCl)
p4029
sg5
Vciprofloxacin HCl
p4030
sg7
g4020
sg9
VC1CC1N2C=C(C(=O)C3=CC(=C(C=C32)N4CCNCC4)F)C(=O)O\u000a
p4031
sba(i__main__
Molecule
p4032
(dp4033
g3
VEvoxac
p4034
sg5
VEvoxa
p4035
sg7
VSjogren's Syndrome
p4036
sg9
VCC1OC2(CN3CCC2CC3)CS1.CC1OC2(CN3CCC2CC3)CS1.O.Cl.Cl\u000a
p4037
sba(i__main__
Molecule
p4038
(dp4039
g3
VAfinitor (everolimus)
p4040
sg5
Veverolimus
p4041
sg7
VSkin Aging
p4042
sg9
VCC1CCC2CC(C(=CC=CC=CC(CC(C(=O)C(C(C(=CC(C(=O)CC(OC(=O)C3CCCCN3C(=O)C(=O)C1(O2)O)C(C)CC4CCC(C(C4)OC)OCCO)C)C)O)OC)C)C)C)OC\u000a
p4043
sba(i__main__
Molecule
p4044
(dp4045
g3
VAfinitor (everolimus)
p4046
sg5
Veverolimus
p4047
sg7
g4042
sg9
VCC1CCC2CC(C(=CC=CC=CC(CC(C(=O)C(C(C(=CC(C(=O)CC(OC(=O)C3CCCCN3C(=O)C(=O)C1(O2)O)C(C)CC4CCC(C(C4)OC)OCCO)C)C)O)OC)C)C)C)OC\u000a
p4048
sba(i__main__
Molecule
p4049
(dp4050
g3
VAfinitor (everolimus)
p4051
sg5
Veverolimus
p4052
sg7
g4042
sg9
VCC1CCC2CC(C(=CC=CC=CC(CC(C(=O)C(C(C(=CC(C(=O)CC(OC(=O)C3CCCCN3C(=O)C(=O)C1(O2)O)C(C)CC4CCC(C(C4)OC)OCCO)C)C)O)OC)C)C)C)OC\u000a
p4053
sba(i__main__
Molecule
p4054
(dp4055
g3
VlaViv (azficel-T)
p4056
sg5
Vazficel-T
p4057
sg7
g4042
sg9
VC1=CC=C2C(=C1)C=CC(=C2O)NN=C3C4=C(C=C(C=C4)[N+](=O)[O-])C(=CC3=O)S(=O)(=O)[O-].[Na+]\u000a
p4058
sba(i__main__
Molecule
p4059
(dp4060
g3
VOdomzo (sonidegib)
p4061
sg5
Vsonidegib
p4062
sg7
VSkin Cancer
p4063
sg9
VCC1CN(CC(O1)C)C2=NC=C(C=C2)NC(=O)C3=CC=CC(=C3C)C4=CC=C(C=C4)OC(F)(F)F\u000a
p4064
sba(i__main__
Molecule
p4065
(dp4066
g3
VPicato (ingenol mebutate) gel
p4067
sg5
Vingenol mebutate
p4068
sg7
g4063
sg9
VCC=C(C)C(=O)OC1C(=CC23C1(C(C(=CC(C2=O)C4C(C4(C)C)CC3C)CO)O)O)C\u000a
p4069
sba(i__main__
Molecule
p4070
(dp4071
g3
VKybella  (deoxycholic acid)
p4072
sg5
Vdeoxycholic acid
p4073
sg7
VSkin Cell Studies
p4074
sg9
VCC(CCC(=O)O)C1CCC2C1(C(CC3C2CCC4C3(CCC(C4)O)C)O)C\u000a
p4075
sba(i__main__
Molecule
p4076
(dp4077
g3
VAfinitor (everolimus)
p4078
sg5
Veverolimus
p4079
sg7
VSkin Infections/Disorders
p4080
sg9
VCC1CCC2CC(C(=CC=CC=CC(CC(C(=O)C(C(C(=CC(C(=O)CC(OC(=O)C3CCCCN3C(=O)C(=O)C1(O2)O)C(C)CC4CCC(C(C4)OC)OCCO)C)C)O)OC)C)C)C)OC\u000a
p4081
sba(i__main__
Molecule
p4082
(dp4083
g3
VAfinitor (everolimus)
p4084
sg5
Veverolimus
p4085
sg7
g4080
sg9
VCC1CCC2CC(C(=CC=CC=CC(CC(C(=O)C(C(C(=CC(C(=O)CC(OC(=O)C3CCCCN3C(=O)C(=O)C1(O2)O)C(C)CC4CCC(C(C4)OC)OCCO)C)C)O)OC)C)C)C)OC\u000a
p4086
sba(i__main__
Molecule
p4087
(dp4088
g3
VAfinitor (everolimus)
p4089
sg5
Veverolimus
p4090
sg7
g4080
sg9
VCC1CCC2CC(C(=CC=CC=CC(CC(C(=O)C(C(C(=CC(C(=O)CC(OC(=O)C3CCCCN3C(=O)C(=O)C1(O2)O)C(C)CC4CCC(C(C4)OC)OCCO)C)C)O)OC)C)C)C)OC\u000a
p4091
sba(i__main__
Molecule
p4092
(dp4093
g3
VBaxdela (delafloxacin) tablets and injection
p4094
sg5
Vdelafloxacin
p4095
sg7
g4080
sg9
VC1C(CN1C2=C(C=C3C(=C2Cl)N(C=C(C3=O)C(=O)O)C4=NC(=C(C=C4F)F)N)F)O\u000a
p4096
sba(i__main__
Molecule
p4097
(dp4098
g3
VDalvance (dalbavancin)
p4099
sg5
Vdalbavancin
p4100
sg7
g4080
sg9
VCC(C)CCCCCCCCC(=O)NC1C(C(C(OC1OC2=C3C=C4C=C2OC5=C(C=C(C=C5)C(C6C(=O)NC(C7=CC(=CC(=C7C8=C(C=CC(=C8)C(C(=O)N6)NC(=O)C4NC(=O)C9C1=CC(=CC(=C1Cl)O)OC1=C(C=CC(=C1)C(C(=O)NC(CC1=CC=C(O3)C=C1)C(=O)N9)NC)O)O)OC1C(C(C(C(O1)CO)O)O)O)O)C(=O)NCCCN(C)C)O)Cl)C(=O)O)O)O\u000a
p4101
sba(i__main__
Molecule
p4102
(dp4103
g3
VFirazyr (icatibant)
p4104
sg5
Vicatibant
p4105
sg7
g4080
sg9
VC1CCC2C(C1)CC(N2C(=O)C3CC4=CC=CC=C4CN3C(=O)C(CO)NC(=O)C(CC5=CC=CS5)NC(=O)CNC(=O)C6CC(CN6C(=O)C7CCCN7C(=O)C(CCCN=C(N)N)NC(=O)C(CCCN=C(N)N)N)O)C(=O)NC(CCCN=C(N)N)C(=O)O\u000a
p4106
sba(i__main__
Molecule
p4107
(dp4108
g3
VOmnicef
p4109
sg5
VOmnice
p4110
sg7
g4080
sg9
VC=CC1=C(N2C(C(C2=O)NC(=O)C(=NO)C3=CSC(=N3)N)SC1)C(=O)O\u000a
p4111
sba(i__main__
Molecule
p4112
(dp4113
g3
VOrbactiv (oritavancin)
p4114
sg5
Voritavancin
p4115
sg7
g4080
sg9
VCC1C(C(CC(O1)OC2C3C(=O)NC(C4=CC(=CC(=C4C5=C(C=CC(=C5)C(C(=O)N3)NC(=O)C6C7=CC(=C(C(=C7)OC8=C(C=C(C=C8)C(C(C(=O)NC(C(=O)N6)CC(=O)N)NC(=O)C(CC(C)C)NC)O)Cl)OC9C(C(C(C(O9)CO)O)O)OC1CC(C(C(O1)C)O)(C)NCC1=CC=C(C=C1)C1=CC=C(C=C1)Cl)OC1=C(C=C2C=C1)Cl)O)O)O)C(=O)O)(C)N)O.OP(=O)(O)O.OP(=O)(O)O\u000a
p4116
sba(i__main__
Molecule
p4117
(dp4118
g3
VOtezla (apremilast)
p4119
sg5
Vapremilast
p4120
sg7
g4080
sg9
VCCOC1=C(C=CC(=C1)C(CS(=O)(=O)C)N2C(=O)C3=C(C2=O)C(=CC=C3)NC(=O)C)OC\u000a
p4121
sba(i__main__
Molecule
p4122
(dp4123
g3
VSivextro (tedizolid phosphate) 
p4124
sg5
Vtedizolid phosphate
p4125
sg7
g4080
sg9
VCN1N=C(N=N1)C2=NC=C(C=C2)C3=C(C=C(C=C3)N4CC(OC4=O)COP(=O)(O)O)F\u000a
p4126
sba(i__main__
Molecule
p4127
(dp4128
g3
VVibativ (telavancin)
p4129
sg5
Vtelavancin
p4130
sg7
g4080
sg9
VCCCCCCCCCCNCCNC1(CC(OC(C1O)C)OC2C(C(C(OC2OC3=C4C=C5C=C3OC6=C(C=C(C=C6)C(C(C(=O)NC(C(=O)NC5C(=O)NC7C8=CC(=C(C=C8)O)C9=C(C(=C(C=C9C(NC(=O)C(C(C1=CC(=C(O4)C=C1)Cl)O)NC7=O)C(=O)O)O)CNCP(=O)(O)O)O)CC(=O)N)NC(=O)C(CC(C)C)NC)O)Cl)CO)O)O)C\u000a
p4131
sba(i__main__
Molecule
p4132
(dp4133
g3
VBelsomra (suvorexant)
p4134
sg5
Vsuvorexant
p4135
sg7
VSleep Disorders
p4136
sg9
VCC1CCN(CCN1C(=O)C2=C(C=CC(=C2)C)N3N=CC=N3)C4=NC5=C(O4)C=CC(=C5)Cl\u000a
p4137
sba(i__main__
Molecule
p4138
(dp4139
g3
VHetlioz (tasimelteon)
p4140
sg5
Vtasimelteon
p4141
sg7
g4136
sg9
VCCC(=O)NCC1CC1C2=C3CCOC3=CC=C2\u000a
p4142
sba(i__main__
Molecule
p4143
(dp4144
g3
VChantix (varenicline)
p4145
sg5
Vvarenicline
p4146
sg7
VSmoking Cessation
p4147
sg9
VC1C2CNCC1C3=CC4=NC=CN=C4C=C23\u000a
p4148
sba(i__main__
Molecule
p4149
(dp4150
g3
VNicoDerm CQ
p4151
sg5
VNicoDerm C
p4152
sg7
g4147
sg9
VCN1CCCC1C2=CN=CC=C2\u000a
p4153
sba(i__main__
Molecule
p4154
(dp4155
g3
VVotrient (pazopanib)
p4156
sg5
Vpazopanib
p4157
sg7
VSoft Tissue Sarcoma
p4158
sg9
VCC1=C(C=C(C=C1)NC2=NC=CC(=N2)N(C)C3=CC4=NN(C(=C4C=C3)C)C)S(=O)(=O)N\u000a
p4159
sba(i__main__
Molecule
p4160
(dp4161
g3
VVotrient (pazopanib)
p4162
sg5
Vpazopanib
p4163
sg7
g4158
sg9
VCC1=C(C=C(C=C1)NC2=NC=CC(=N2)N(C)C3=CC4=NN(C(=C4C=C3)C)C)S(=O)(=O)N\u000a
p4164
sba(i__main__
Molecule
p4165
(dp4166
g3
VYondelis (trabectedin)
p4167
sg5
Vtrabectedin
p4168
sg7
g4158
sg9
VCC1=C(C(=C2C3C4C5C6=C(C(N4C(C(N3C)CC2=C1)O)COC(=O)C7(CS5)C8=CC(=C(C=C8CCN7)O)OC)C9=C(C(=C6OC(=O)C)C)OCO9)O)OC\u000a
p4169
sba(i__main__
Molecule
p4170
(dp4171
g3
VLyrica (pregabalin)
p4172
sg5
Vpregabalin
p4173
sg7
VSpinal Cord Injuries
p4174
sg9
VCC(C)CC(CC(=O)O)CN\u000a
p4175
sba(i__main__
Molecule
p4176
(dp4177
g3
VLyrica (pregabalin)
p4178
sg5
Vpregabalin
p4179
sg7
g4174
sg9
VCC(C)CC(CC(=O)O)CN\u000a
p4180
sba(i__main__
Molecule
p4181
(dp4182
g3
VSpinraza (nusinersen)
p4183
sg5
Vnusinersen
p4184
sg7
VSpinal Muscular Atrophy
p4185
sg9
VCC1=CN(C(=O)NC1=O)C2C(C(C(O2)CO)OP(=S)(O)OCC3C(C(C(O3)N4C=C(C(=NC4=O)N)C)OCCOC)OP(=S)(O)OCC5C(C(C(O5)N6C=NC7=C6N=CN=C7N)OCCOC)OP(=S)(O)OCC8C(C(C(O8)N9C=C(C(=NC9=O)N)C)OCCOC)OP(=S)(O)OCC1C(C(C(O1)N1C=C(C(=O)NC1=O)C)OCCOC)OP(=S)(O)OCC1C(C(C(O1)N1C=C(C(=O)NC1=O)C)OCCOC)OP(=S)(O)OCC1C(C(C(O1)N1C=C(C(=O)NC1=O)C)OCCOC)OP(=S)(O)OCC1C(C(C(O1)N1C=C(C(=NC1=O)N)C)OCCOC)OP(=S)(O)OCC1C(C(C(O1)N1C=NC2=C1N=CN=C2N)OCCOC)OP(=S)(O)OCC1C(C(C(O1)N1C=C(C(=O)NC1=O)C)OCCOC)OP(=S)(O)OCC1C(C(C(O1)N1C=NC2=C1N=CN=C2N)OCCOC)OP(=S)(O)OCC1C(C(C(O1)N1C=NC2=C1N=CN=C2N)OCCOC)OP(=S)(O)OCC1C(C(C(O1)N1C=C(C(=O)NC1=O)C)OCCOC)OP(=S)(O)OCC1C(C(C(O1)N1C=NC2=C1N=C(NC2=O)N)OCCOC)OP(=S)(O)OCC1C(C(C(O1)N1C=C(C(=NC1=O)N)C)OCCOC)OP(=S)(O)OCC1C(C(C(O1)N1C=C(C(=O)NC1=O)C)OCCOC)OP(=O)(OCC1C(C(C(O1)N1C=NC2=C1N=C(NC2=O)N)OCCOC)OP(=S)(O)OCC1C(C(C(O1)N1C=NC2=C1N=C(NC2=O)N)OCCOC)O)S)OCCOC\u000a
p4186
sba(i__main__
Molecule
p4187
(dp4188
g3
VSivextro (tedizolid phosphate) 
p4189
sg5
Vtedizolid phosphate
p4190
sg7
VStaphylococcal Infections
p4191
sg9
VCN1N=C(N=N1)C2=NC=C(C=C2)C3=C(C=C(C=C3)N4CC(OC4=O)COP(=O)(O)O)F\u000a
p4192
sba(i__main__
Molecule
p4193
(dp4194
g3
VBaxdela (delafloxacin) tablets and injection
p4195
sg5
Vdelafloxacin
p4196
sg7
VStaphylococcal Skin Infections
p4197
sg9
VC1C(CN1C2=C(C=C3C(=C2Cl)N(C=C(C3=O)C(=O)O)C4=NC(=C(C=C4F)F)N)F)O\u000a
p4198
sba(i__main__
Molecule
p4199
(dp4200
g3
VDalvance (dalbavancin)
p4201
sg5
Vdalbavancin
p4202
sg7
g4197
sg9
VCC(C)CCCCCCCCC(=O)NC1C(C(C(OC1OC2=C3C=C4C=C2OC5=C(C=C(C=C5)C(C6C(=O)NC(C7=CC(=CC(=C7C8=C(C=CC(=C8)C(C(=O)N6)NC(=O)C4NC(=O)C9C1=CC(=CC(=C1Cl)O)OC1=C(C=CC(=C1)C(C(=O)NC(CC1=CC=C(O3)C=C1)C(=O)N9)NC)O)O)OC1C(C(C(C(O1)CO)O)O)O)O)C(=O)NCCCN(C)C)O)Cl)C(=O)O)O)O\u000a
p4203
sba(i__main__
Molecule
p4204
(dp4205
g3
VOrbactiv (oritavancin)
p4206
sg5
Voritavancin
p4207
sg7
g4197
sg9
VCC1C(C(CC(O1)OC2C3C(=O)NC(C4=CC(=CC(=C4C5=C(C=CC(=C5)C(C(=O)N3)NC(=O)C6C7=CC(=C(C(=C7)OC8=C(C=C(C=C8)C(C(C(=O)NC(C(=O)N6)CC(=O)N)NC(=O)C(CC(C)C)NC)O)Cl)OC9C(C(C(C(O9)CO)O)O)OC1CC(C(C(O1)C)O)(C)NCC1=CC=C(C=C1)C1=CC=C(C=C1)Cl)OC1=C(C=C2C=C1)Cl)O)O)O)C(=O)O)(C)N)O.OP(=O)(O)O.OP(=O)(O)O\u000a
p4208
sba(i__main__
Molecule
p4209
(dp4210
g3
VSivextro (tedizolid phosphate) 
p4211
sg5
Vtedizolid phosphate
p4212
sg7
g4197
sg9
VCN1N=C(N=N1)C2=NC=C(C=C2)C3=C(C=C(C=C3)N4CC(OC4=O)COP(=O)(O)O)F\u000a
p4213
sba(i__main__
Molecule
p4214
(dp4215
g3
VDefitelio (defibrotide sodium)
p4216
sg5
Vdefibrotide sodium
p4217
sg7
VStem Cell Transplant
p4218
sg9
VC1=CC=C(C=C1)C2=CC=CC=C2[O-].[Na+]\u000a
p4219
sba(i__main__
Molecule
p4220
(dp4221
g3
VAkynzeo (netupitant and palonosetron)
p4222
sg5
Vnetupitant and palonosetron
p4223
sg7
VStomach Discomfort
p4224
sg9
VCC=C(C=C)C1=CC(=NC=C1N(C)C(=O)C(C)(C)C2=CC(=CC(=C2)C(F)(F)F)C(F)(F)F)N3CCN(CC3)C.C1CC2CN(C(=O)C3=C2C(=CC=C3)C1)C4CN5CCC4CC5\u000a
p4225
sba(i__main__
Molecule
p4226
(dp4227
g3
VSustol (granisetron)
p4228
sg5
Vgranisetron
p4229
sg7
g4224
sg9
VCN1C2CCCC1CC(C2)NC(=O)C3=NN(C4=CC=CC=C43)C\u000a
p4230
sba(i__main__
Molecule
p4231
(dp4232
g3
VAggrenox
p4233
sg5
VAggreno
p4234
sg7
VStroke
p4235
sg9
VCC(=O)OC1=CC=CC=C1C(=O)O.C1CCN(CC1)C2=NC(=NC3=C2N=C(N=C3N4CCCCC4)N(CCO)CCO)N(CCO)CCO\u000a
p4236
sba(i__main__
Molecule
p4237
(dp4238
g3
VEliquis (apixaban)
p4239
sg5
Vapixaban
p4240
sg7
g4235
sg9
VCOC1=CC=C(C=C1)N2C3=C(CCN(C3=O)C4=CC=C(C=C4)N5CCCCC5=O)C(=N2)C(=O)N\u000a
p4241
sba(i__main__
Molecule
p4242
(dp4243
g3
VPradaxa (dabigatran etexilate mesylate)
p4244
sg5
Vdabigatran etexilate mesylate
p4245
sg7
g4235
sg9
VCN1C2=C(C=C(C=C2)C(=O)N(CCC(=O)O)C3=CC=CC=N3)N=C1CNC4=CC=C(C=C4)C(=N)N\u000a
p4246
sba(i__main__
Molecule
p4247
(dp4248
g3
VSavaysa (edoxaban)
p4249
sg5
Vedoxaban
p4250
sg7
g4235
sg9
VCN1CCC2=C(C1)SC(=N2)C(=O)NC3CC(CCC3NC(=O)C(=O)NC4=NC=C(C=C4)Cl)C(=O)N(C)C\u000a
p4251
sba(i__main__
Molecule
p4252
(dp4253
g3
VXarelto (rivaroxaban)
p4254
sg5
Vrivaroxaban
p4255
sg7
g4235
sg9
VC1COCC(=O)N1C2=CC=C(C=C2)N3CC(OC3=O)CNC(=O)C4=CC=C(S4)Cl\u000a
p4256
sba(i__main__
Molecule
p4257
(dp4258
g3
VXarelto (rivaroxaban)
p4259
sg5
Vrivaroxaban
p4260
sg7
g4235
sg9
VC1COCC(=O)N1C2=CC=C(C=C2)N3CC(OC3=O)CNC(=O)C4=CC=C(S4)Cl\u000a
p4261
sba(i__main__
Molecule
p4262
(dp4263
g3
VBridion (sugammadex)
p4264
sg5
Vsugammadex
p4265
sg7
VSurgery
p4266
sg9
VC(CSCC1C2C(C(C(O1)OC3C(OC(C(C3O)O)OC4C(OC(C(C4O)O)OC5C(OC(C(C5O)O)OC6C(OC(C(C6O)O)OC7C(OC(C(C7O)O)OC8C(OC(C(C8O)O)OC9C(OC(O2)C(C9O)O)CSCCC(=O)[O-])CSCCC(=O)[O-])CSCCC(=O)[O-])CSCCC(=O)[O-])CSCCC(=O)[O-])CSCCC(=O)[O-])CSCCC(=O)[O-])O)O)C(=O)[O-].[Na+].[Na+].[Na+].[Na+].[Na+].[Na+].[Na+].[Na+]\u000a
p4267
sba(i__main__
Molecule
p4268
(dp4269
g3
VAustedo (deutetrabenazine) 
p4270
sg5
Vdeutetrabenazine
p4271
sg7
VTardive Dyskinesia
p4272
sg9
VCC(C)CC1CN2CCC3=CC(=C(C=C3C2CC1=O)OC)OC\u000a
p4273
sba(i__main__
Molecule
p4274
(dp4275
g3
VIngrezza (valbenazine)
p4276
sg5
Vvalbenazine
p4277
sg7
g4272
sg9
VCC(C)CC1CN2CCC3=CC(=C(C=C3C2CC1OC(=O)C(C(C)C)N)OC)OC\u000a
p4278
sba(i__main__
Molecule
p4279
(dp4280
g3
VBeleodaq (belinostat)
p4281
sg5
Vbelinostat
p4282
sg7
VT-Cell Lymphoma
p4283
sg9
VC1=CC=C(C=C1)NS(=O)(=O)C2=CC=CC(=C2)C=CC(=O)NO\u000a
p4284
sba(i__main__
Molecule
p4285
(dp4286
g3
VArgatroban Injection
p4287
sg5
VArgatroban Injectio
p4288
sg7
VThrombocytopenia and Thrombocytopenia Prevention
p4289
sg9
VCC1CCN(C(C1)C(=O)O)C(=O)C(CCCN=C(N)N)NS(=O)(=O)C2=CC=CC3=C2NCC(C3)C\u000a
p4290
sba(i__main__
Molecule
p4291
(dp4292
g3
VElelyso (taliglucerase alfa)
p4293
sg5
Vtaliglucerase alfa
p4294
sg7
g4289
sg9
VC1=CC(=CC(=C1)Cl)C(F)(F)F\u000a
p4295
sba(i__main__
Molecule
p4296
(dp4297
g3
VAdempas (riociguat)
p4298
sg5
Vriociguat
p4299
sg7
VThromboembolism
p4300
sg9
VCN(C1=C(N=C(N=C1N)C2=NN(C3=C2C=CC=N3)CC4=CC=CC=C4F)N)C(=O)OC\u000a
p4301
sba(i__main__
Molecule
p4302
(dp4303
g3
VEliquis (apixaban)
p4304
sg5
Vapixaban
p4305
sg7
g4300
sg9
VCOC1=CC=C(C=C1)N2C3=C(CCN(C3=O)C4=CC=C(C=C4)N5CCCCC5=O)C(=N2)C(=O)N\u000a
p4306
sba(i__main__
Molecule
p4307
(dp4308
g3
VArgatroban Injection
p4309
sg5
VArgatroban Injectio
p4310
sg7
VThrombosis
p4311
sg9
VCC1CCN(C(C1)C(=O)O)C(=O)C(CCCN=C(N)N)NS(=O)(=O)C2=CC=CC3=C2NCC(C3)C\u000a
p4312
sba(i__main__
Molecule
p4313
(dp4314
g3
VArixtra
p4315
sg5
VArixtr
p4316
sg7
g4311
sg9
VCOC1C(C(C(C(O1)COS(=O)(=O)[O-])OC2C(C(C(C(O2)C(=O)[O-])OC3C(C(C(C(O3)COS(=O)(=O)[O-])OC4C(C(C(C(O4)C(=O)[O-])OC5C(C(C(C(O5)COS(=O)(=O)[O-])O)O)NS(=O)(=O)[O-])O)O)OS(=O)(=O)[O-])NS(=O)(=O)[O-])O)OS(=O)(=O)[O-])O)NS(=O)(=O)[O-].[Na+].[Na+].[Na+].[Na+].[Na+].[Na+].[Na+].[Na+].[Na+].[Na+]\u000a
p4317
sba(i__main__
Molecule
p4318
(dp4319
g3
VBrilinta (ticagrelor)
p4320
sg5
Vticagrelor
p4321
sg7
g4311
sg9
VCCCSC1=NC2=C(C(=N1)NC3CC3C4=CC(=C(C=C4)F)F)N=NN2C5CC(C(C5O)O)OCCO\u000a
p4322
sba(i__main__
Molecule
p4323
(dp4324
g3
VInnohep (tinzaparin sodium) injectable
p4325
sg5
Vtinzaparin sodium
p4326
sg7
g4311
sg9
VCC(=O)NC1C(C(C(OC1O)COS(=O)(=O)O)OC2C(C(C(C(O2)C(=O)O)OC3C(C(C(C(O3)CO)OC4C(C(C(C(O4)C(=O)O)O)O)OS(=O)(=O)O)OS(=O)(=O)O)NS(=O)(=O)O)O)OS(=O)(=O)O)O\u000a
p4327
sba(i__main__
Molecule
p4328
(dp4329
g3
VKengreal (cangrelor) 
p4330
sg5
Vcangrelor
p4331
sg7
g4311
sg9
VCSCCNC1=NC(=NC2=C1N=CN2C3C(C(C(O3)COP(=O)(O)OP(=O)(C(P(=O)(O)O)(Cl)Cl)O)O)O)SCCC(F)(F)F\u000a
p4332
sba(i__main__
Molecule
p4333
(dp4334
g3
VLovenox (enoxaparin sodium) Injection
p4335
sg5
Venoxaparin sodium
p4336
sg7
g4311
sg9
VCC(=O)NC1C(C(C(OC1O)COS(=O)(=O)O)OC2C(C(C(C(O2)C(=O)O)OC3C(C(C(C(O3)CO)OC4C(C(C(C(O4)C(=O)O)O)O)OS(=O)(=O)O)OS(=O)(=O)O)NS(=O)(=O)O)O)OS(=O)(=O)O)O\u000a
p4337
sba(i__main__
Molecule
p4338
(dp4339
g3
VNormiflo
p4340
sg5
VNormifl
p4341
sg7
g4311
sg9
VCC(=O)NC1C(C(C(OC1O)COS(=O)(=O)O)OC2C(C(C(C(O2)C(=O)O)OC3C(C(C(C(O3)CO)OC4C(C(C(C(O4)C(=O)O)O)O)OS(=O)(=O)O)OS(=O)(=O)O)NS(=O)(=O)O)O)OS(=O)(=O)O)O\u000a
p4342
sba(i__main__
Molecule
p4343
(dp4344
g3
VXarelto (rivaroxaban)
p4345
sg5
Vrivaroxaban
p4346
sg7
g4311
sg9
VC1COCC(=O)N1C2=CC=C(C=C2)N3CC(OC3=O)CNC(=O)C4=CC=C(S4)Cl\u000a
p4347
sba(i__main__
Molecule
p4348
(dp4349
g3
VZontivity (vorapaxar)
p4350
sg5
Vvorapaxar
p4351
sg7
g4311
sg9
VCCOC(=O)NC1CCC2C(C1)CC3C(C2C=CC4=NC=C(C=C4)C5=CC(=CC=C5)F)C(OC3=O)C\u000a
p4352
sba(i__main__
Molecule
p4353
(dp4354
g3
VCometriq (cabozantinib)
p4355
sg5
Vcabozantinib
p4356
sg7
VThyroid Cancer
p4357
sg9
VCOC1=CC2=C(C=CN=C2C=C1OC)OC3=CC=C(C=C3)NC(=O)C4(CC4)C(=O)NC5=CC=C(C=C5)F\u000a
p4358
sba(i__main__
Molecule
p4359
(dp4360
g3
VLenvima (lenvatinib)
p4361
sg5
Vlenvatinib
p4362
sg7
g4357
sg9
VCOC1=CC2=NC=CC(=C2C=C1C(=O)N)OC3=CC(=C(C=C3)NC(=O)NC4CC4)Cl\u000a
p4363
sba(i__main__
Molecule
p4364
(dp4365
g3
VVandetanib (vandetanib)
p4366
sg5
Vvandetanib
p4367
sg7
g4357
sg9
VCN1CCC(CC1)COC2=C(C=C3C(=C2)N=CN=C3NC4=C(C=C(C=C4)Br)F)OC\u000a
p4368
sba(i__main__
Molecule
p4369
(dp4370
g3
VLevoxyl
p4371
sg5
VLevoxy
p4372
sg7
VThyroid Disease
p4373
sg9
VC1=C(C=C(C(=C1I)OC2=CC(=C(C(=C2)I)O)I)I)CC(C(=O)O)N\u000a
p4374
sba(i__main__
Molecule
p4375
(dp4376
g3
VLevo-T (levothyroxine sodium)
p4377
sg5
Vlevothyroxine sodium
p4378
sg7
VThyroid Disorders
p4379
sg9
VC1=C(C=C(C(=C1I)OC2=CC(=C(C(=C2)I)O)I)I)CC(C(=O)O)N\u000a
p4380
sba(i__main__
Molecule
p4381
(dp4382
g3
VLevoxyl
p4383
sg5
VLevoxy
p4384
sg7
g4379
sg9
VC1=C(C=C(C(=C1I)OC2=CC(=C(C(=C2)I)O)I)I)CC(C(=O)O)N\u000a
p4385
sba(i__main__
Molecule
p4386
(dp4387
g3
VParsabiv (etelcalcetide)
p4388
sg5
Vetelcalcetide
p4389
sg7
g4379
sg9
VCC(C(=O)NC(CCCN=C(N)N)C(=O)N)NC(=O)C(CCCN=C(N)N)NC(=O)C(CCCN=C(N)N)NC(=O)C(CCCN=C(N)N)NC(=O)C(C)NC(=O)C(CSSCC(C(=O)O)N)NC(=O)C\u000a
p4390
sba(i__main__
Molecule
p4391
(dp4392
g3
VSensipar (cinacalcet)
p4393
sg5
Vcinacalcet
p4394
sg7
g4379
sg9
VCC(C1=CC=CC2=CC=CC=C21)NCCCC3=CC(=CC=C3)C(F)(F)F\u000a
p4395
sba(i__main__
Molecule
p4396
(dp4397
g3
VSynthroid (levothyroxine sodium)
p4398
sg5
Vlevothyroxine sodium
p4399
sg7
g4379
sg9
VC1=C(C=C(C(=C1I)OC2=CC(=C(C(=C2)I)O)I)I)CC(C(=O)O)N\u000a
p4400
sba(i__main__
Molecule
p4401
(dp4402
g3
VJublia (efinaconazole) 10% topical gel
p4403
sg5
Vefinaconazole
p4404
sg7
VToenail Fungus (Onychomycosis)
p4405
sg9
VCC(C(CN1C=NC=N1)(C2=C(C=C(C=C2)F)F)O)N3CCC(=C)CC3\u000a
p4406
sba(i__main__
Molecule
p4407
(dp4408
g3
VKerydin (tavaborole)
p4409
sg5
Vtavaborole
p4410
sg7
g4405
sg9
VB1(C2=C(CO1)C=C(C=C2)F)O\u000a
p4411
sba(i__main__
Molecule
p4412
(dp4413
g3
VCellCept
p4414
sg5
VCellCep
p4415
sg7
VTransplant Rejection
p4416
sg9
VCC1=C(C(=C(C2=C1COC2=O)O)CC=C(C)CCC(=O)OCCN3CCOCC3)OC\u000a
p4417
sba(i__main__
Molecule
p4418
(dp4419
g3
VPrograf
p4420
sg5
VProgra
p4421
sg7
g4416
sg9
VC1=CC(=C(C(=C1)F)C(=O)NC(=O)NC2=CC(=C(C=C2Cl)OC(C(C(F)(F)F)F)(F)F)Cl)F\u000a
p4422
sba(i__main__
Molecule
p4423
(dp4424
g3
VRapamune (sirolimus) oral solution
p4425
sg5
Vsirolimus
p4426
sg7
g4416
sg9
VCC1CCC2CC(C(=CC=CC=CC(CC(C(=O)C(C(C(=CC(C(=O)CC(OC(=O)C3CCCCN3C(=O)C(=O)C1(O2)O)C(C)CC4CCC(C(C4)OC)O)C)C)O)OC)C)C)C)OC\u000a
p4427
sba(i__main__
Molecule
p4428
(dp4429
g3
VRapamune (sirolimus) Tablets
p4430
sg5
Vsirolimus
p4431
sg7
g4416
sg9
VCC1CCC2CC(C(=CC=CC=CC(CC(C(=O)C(C(C(=CC(C(=O)CC(OC(=O)C3CCCCN3C(=O)C(=O)C1(O2)O)C(C)CC4CCC(C(C4)OC)O)C)C)O)OC)C)C)C)OC\u000a
p4432
sba(i__main__
Molecule
p4433
(dp4434
g3
VZortress (everolimus)
p4435
sg5
Veverolimus
p4436
sg7
g4416
sg9
VCC1CCC2CC(C(=CC=CC=CC(CC(C(=O)C(C(C(=CC(C(=O)CC(OC(=O)C3CCCCN3C(=O)C(=O)C1(O2)O)C(C)CC4CCC(C(C4)OC)OCCO)C)C)O)OC)C)C)C)OC\u000a
p4437
sba(i__main__
Molecule
p4438
(dp4439
g3
VSaizen
p4440
sg5
VSaize
p4441
sg7
VTurner Syndrome
p4442
sg9
V[Al]\u000a
p4443
sba(i__main__
Molecule
p4444
(dp4445
g3
VAsacol (mesalamine)
p4446
sg5
Vmesalamine
p4447
sg7
VUlcerative Colitis
p4448
sg9
VC1=CC(=C(C=C1N)C(=O)O)O\u000a
p4449
sba(i__main__
Molecule
p4450
(dp4451
g3
VColazal (balsalazide disodium)
p4452
sg5
Vbalsalazide disodium
p4453
sg7
g4448
sg9
VC1=CC(=CC=C1C(=O)NCCC(=O)[O-])NN=C2C=CC(=O)C(=C2)C(=O)[O-].O.O.[Na+].[Na+]\u000a
p4454
sba(i__main__
Molecule
p4455
(dp4456
g3
VUceris (budesonide)
p4457
sg5
Vbudesonide
p4458
sg7
g4448
sg9
VCCCC1OC2CC3C4CCC5=CC(=O)C=CC5(C4C(CC3(C2(O1)C(=O)CO)C)O)C\u000a
p4459
sba(i__main__
Molecule
p4460
(dp4461
g3
VAnturol (oxybutynin) Gel
p4462
sg5
Voxybutynin
p4463
sg7
VUrinary Incontinence
p4464
sg9
VCCN(CC)CC#CCOC(=O)C(C1CCCCC1)(C2=CC=CC=C2)O\u000a
p4465
sba(i__main__
Molecule
p4466
(dp4467
g3
VMyrbetriq (mirabegron)
p4468
sg5
Vmirabegron
p4469
sg7
g4464
sg9
VC1=CC=C(C=C1)C(CNCCC2=CC=C(C=C2)NC(=O)CC3=CSC(=N3)N)O\u000a
p4470
sba(i__main__
Molecule
p4471
(dp4472
g3
VDoribax (doripenem)
p4473
sg5
Vdoripenem
p4474
sg7
VUrinary Tract Infections
p4475
sg9
VCC1C2C(C(=O)N2C(=C1SC3CC(NC3)CNS(=O)(=O)N)C(=O)O)C(C)O\u000a
p4476
sba(i__main__
Molecule
p4477
(dp4478
g3
VMonurol
p4479
sg5
VMonuro
p4480
sg7
g4475
sg9
VCN(C)C(=O)NC1=CC=C(C=C1)Cl\u000a
p4481
sba(i__main__
Molecule
p4482
(dp4483
g3
VZerbaxa (ceftolozane + tazobactam) 
p4484
sg5
Vceftolozane + tazobactam
p4485
sg7
g4475
sg9
VCC1(C(N2C(S1(=O)=O)CC2=O)C(=O)O)CN3C=CN=N3.CC(C)(C(=O)O)ON=C(C1=NSC(=N1)N)C(=O)NC2C3N(C2=O)C(=C(CS3)C[N+]4=CC(=C(N4C)N)NC(=O)NCCN)C(=O)[O-]\u000a
p4486
sba(i__main__
Molecule
p4487
(dp4488
g3
VGastrocrom Oral Concentrate (cromolyn sodium)
p4489
sg5
Vcromolyn sodium
p4490
sg7
VUrticaria
p4491
sg9
VC1=CC2=C(C(=C1)OCC(COC3=CC=CC4=C3C(=O)C=C(O4)C(=O)[O-])O)C(=O)C=C(O2)C(=O)[O-].[Na+].[Na+]\u000a
p4492
sba(i__main__
Molecule
p4493
(dp4494
g3
VVariZIG, Varicella Zoster Immune Globulin (Human)
p4495
sg5
VHuman
p4496
sg7
VVaccines
p4497
sg9
VCCC(C)C1C(=O)NCC(=O)NC(C(=O)NC(C(=O)NC(C(=O)NCC(=O)NC(C(=O)NCC(=O)NC(CSSCC(C(=O)NC(C(=O)NCC(=O)NCC(=O)NC(C(=O)NC(C(=O)NC(C(=O)NC(C(=O)N1)CCCNC(=N)N)CC(=O)O)CCSC)CCCNC(=N)N)CC2=CC=CC=C2)NC(=O)C(CO)NC(=O)C(CO)NC(=O)C(CCCNC(=N)N)NC(=O)C(CCCNC(=N)N)NC(=O)C(CC(C)C)NC(=O)C(CO)N)C(=O)NC(CC(=O)N)C(=O)NC(CO)C(=O)NC(CC3=CC=CC=C3)C(=O)NC(CCCNC(=N)N)C(=O)NC(CC4=CC=C(C=C4)O)C(=O)O)CC(C)C)CO)CCC(=O)N)C\u000a
p4498
sba(i__main__
Molecule
p4499
(dp4500
g3
VOsphena (ospemifene)
p4501
sg5
Vospemifene
p4502
sg7
VVaginal Atrophy
p4503
sg9
VC1=CC=C(C=C1)C(=C(C2=CC=CC=C2)C3=CC=C(C=C3)OCCO)CCCl\u000a
p4504
sba(i__main__
Molecule
p4505
(dp4506
g3
VFEMSTAT One
p4507
sg5
VFEMSTAT On
p4508
sg7
VVaginal Infection
p4509
sg9
VC1=CC(=C(C(=C1)Cl)SC(CCC2=CC=C(C=C2)Cl)CN3C=CN=C3)Cl\u000a
p4510
sba(i__main__
Molecule
p4511
(dp4512
g3
VMonistat 3 (miconazole nitrate)
p4513
sg5
Vmiconazole nitrate
p4514
sg7
g4509
sg9
VC1=CC(=C(C=C1Cl)Cl)COC(CN2C=CN=C2)C3=C(C=C(C=C3)Cl)Cl.[N+](=O)(O)[O-]\u000a
p4515
sba(i__main__
Molecule
p4516
(dp4517
g3
VSolosec (secnidazole) 
p4518
sg5
Vsecnidazole
p4519
sg7
g4509
sg9
VCC1=NC=C(N1CC(C)O)[N+](=O)[O-]\u000a
p4520
sba(i__main__
Molecule
p4521
(dp4522
g3
VBevyxxa (betrixaban)
p4523
sg5
Vbetrixaban
p4524
sg7
VVenous Thromboembolism
p4525
sg9
VCN(C)C(=N)C1=CC=C(C=C1)C(=O)NC2=C(C=C(C=C2)OC)C(=O)NC3=NC=C(C=C3)Cl\u000a
p4526
sba(i__main__
Molecule
p4527
(dp4528
g3
VBenznidazole
p4529
sg5
VBenznidazol
p4530
sg7
VViral Infections
p4531
sg9
VCOC(=O)NC1=NC2=CC=CC=C2N1\u000a
p4532
sba(i__main__
Molecule
p4533
(dp4534
g3
VKedRab [Rabies Immune Globulin (Human)]
p4535
sg5
VHuman
p4536
sg7
g4531
sg9
VCCC(C)C1C(=O)NCC(=O)NC(C(=O)NC(C(=O)NC(C(=O)NCC(=O)NC(C(=O)NCC(=O)NC(CSSCC(C(=O)NC(C(=O)NCC(=O)NCC(=O)NC(C(=O)NC(C(=O)NC(C(=O)NC(C(=O)N1)CCCNC(=N)N)CC(=O)O)CCSC)CCCNC(=N)N)CC2=CC=CC=C2)NC(=O)C(CO)NC(=O)C(CO)NC(=O)C(CCCNC(=N)N)NC(=O)C(CCCNC(=N)N)NC(=O)C(CC(C)C)NC(=O)C(CO)N)C(=O)NC(CC(=O)N)C(=O)NC(CO)C(=O)NC(CC3=CC=CC=C3)C(=O)NC(CCCNC(=N)N)C(=O)NC(CC4=CC=C(C=C4)O)C(=O)O)CC(C)C)CO)CCC(=O)N)C\u000a
p4537
sba(i__main__
Molecule
p4538
(dp4539
g3
VNascobal Gel (Cyanocobalamin, USP)
p4540
sg5
VCyanocobalamin, USP
p4541
sg7
VVitamin Deficiency
p4542
sg9
VCC1=CC2=C(C=C1C)N(C=N2)C3C(C(C(O3)CO)OP(=O)([O-])OC(C)CNC(=O)CCC4(C(C5C6(C(C(C(=C(C7=NC(=CC8=NC(=C(C4=N5)C)C(C8(C)C)CCC(=O)N)C(C7(C)CC(=O)N)CCC(=O)N)C)[N-]6)CCC(=O)N)(C)CC(=O)N)C)CC(=O)N)C)O.[C-]#N.[Co+3]\u000a
p4543
sba(i__main__
Molecule
p4544
(dp4545
g3
VAkynzeo (netupitant and palonosetron)
p4546
sg5
Vnetupitant and palonosetron
p4547
sg7
VVomiting
p4548
sg9
VCC=C(C=C)C1=CC(=NC=C1N(C)C(=O)C(C)(C)C2=CC(=CC(=C2)C(F)(F)F)C(F)(F)F)N3CCN(CC3)C.C1CC2CN(C(=O)C3=C2C(=CC=C3)C1)C4CN5CCC4CC5\u000a
p4549
sba(i__main__
Molecule
p4550
(dp4551
g3
VSustol (granisetron)
p4552
sg5
Vgranisetron
p4553
sg7
g4548
sg9
VCN1C2CCCC1CC(C2)NC(=O)C3=NN(C4=CC=CC=C43)C\u000a
p4554
sba(i__main__
Molecule
p4555
(dp4556
g3
VVarubi (rolapitant)
p4557
sg5
Vrolapitant
p4558
sg7
g4548
sg9
VCC(C1=CC(=CC(=C1)C(F)(F)F)C(F)(F)F)OCC2(CCC3(CCC(=O)N3)CN2)C4=CC=CC=C4\u000a
p4559
sba(i__main__
Molecule
p4560
(dp4561
g3
VImbruvica (ibrutinib)
p4562
sg5
Vibrutinib
p4563
sg7
VWaldenstrom Macroglobulinemia
p4564
sg9
VC=CC(=O)N1CCCC(C1)N2C3=C(C(=N2)C4=CC=C(C=C4)OC5=CC=CC=C5)C(=NC=N3)N\u000a
p4565
sba(i__main__
Molecule
p4566
(dp4567
g3
VAldara (imiquimod)
p4568
sg5
Vimiquimod
p4569
sg7
VWarts
p4570
sg9
VCC(C)CN1C=NC2=C1C3=CC=CC=C3N=C2N\u000a
p4571
sba(i__main__
Molecule
p4572
(dp4573
g3
VCondylox Gel 0.5% (pokofilox)
p4574
sg5
Vpokofilox
p4575
sg7
g4570
sg9
VCOC1=CC(=CC(=C1OC)OC)C2C3C(COC3=O)C(C4=CC5=C(C=C24)OCO5)O\u000a
p4576
sba(i__main__
Molecule
p4577
(dp4578
g3
VBelviq (lorcaserin hydrochloride)
p4579
sg5
Vlorcaserin hydrochloride
p4580
sg7
VWeight Loss
p4581
sg9
VCC1CNCCC2=C1C=C(C=C2)Cl.Cl\u000a
p4582
sba(i__main__
Molecule
p4583
(dp4584
g3
VNesina (alogliptin)
p4585
sg5
Valogliptin
p4586
sg7
g4581
sg9
VCN1C(=O)C=C(N(C1=O)CC2=CC=CC=C2C#N)N3CCCC(C3)N\u000a
p4587
sba(i__main__
Molecule
p4588
(dp4589
g3
VGalzin (zinc acetate)
p4590
sg5
Vzinc acetate
p4591
sg7
VWilson's Disease
p4592
sg9
VCC(=O)[O-].CC(=O)[O-].[Zn+2]\u000a
p4593
sba(i__main__
Molecule
p4594
(dp4595
g3
VOsmoCyte Pillow Wound Dressing
p4596
sg5
VOsmoCyte Pillow Wound Dressin
p4597
sg7
VWounds
p4598
sg9
VCC(=O)NC1C(C(C(OC1OC2C(OC(C(C2OC(=O)C)O)OC3C(OC(C(C3OC(=O)C)O)OC4C(OC(C(C4OC(=O)C)O)OC)CO)CO)CO)CO)OC5C(C(C(C(O5)CO)OC6C(C(C(C(O6)C(=O)[O-])OC7C(C(C(C(O7)CO)OC8C(C(C(C(O8)CO)OC)OC(=O)C)O)OC(=O)C)O)OC(=O)C)O)OC(=O)C)O)O\u000a
p4599
sba(i__main__
Molecule
p4600
(dp4601
g3
VFEMSTAT One
p4602
sg5
VFEMSTAT On
p4603
sg7
VYeast Infections
p4604
sg9
VC1=CC(=C(C(=C1)Cl)SC(CCC2=CC=C(C=C2)Cl)CN3C=CN=C3)Cl\u000a
p4605
sba(i__main__
Molecule
p4606
(dp4607
g3
VSPORANOX (itraconazole)
p4608
sg5
Vitraconazole
p4609
sg7
g4604
sg9
VCCC(C)N1C(=O)N(C=N1)C2=CC=C(C=C2)N3CCN(CC3)C4=CC=C(C=C4)OCC5COC(O5)(CN6C=NC=N6)C7=C(C=C(C=C7)Cl)Cl\u000a
p4610
sba.